	.cpu cortex-m4
	.arch armv7e-m
	.fpu fpv4-sp-d16
	.eabi_attribute 27, 1
	.eabi_attribute 28, 1
	.eabi_attribute 20, 1
	.eabi_attribute 21, 1
	.eabi_attribute 23, 3
	.eabi_attribute 24, 1
	.eabi_attribute 25, 1
	.eabi_attribute 26, 1
	.eabi_attribute 30, 6
	.eabi_attribute 34, 1
	.eabi_attribute 18, 4
	.file	"stm32f4xx_hal_rcc.c"
	.text
.Ltext0:
	.cfi_sections	.debug_frame
	.section	.text.HAL_RCC_DeInit,"ax",%progbits
	.align	1
	.weak	HAL_RCC_DeInit
	.syntax unified
	.thumb
	.thumb_func
	.type	HAL_RCC_DeInit, %function
HAL_RCC_DeInit:
.LFB130:
	.file 1 "../Drivers/STM32F4xx_HAL_Driver/Src/stm32f4xx_hal_rcc.c"
	.loc 1 201 1
	.cfi_startproc
	@ args = 0, pretend = 0, frame = 0
	@ frame_needed = 1, uses_anonymous_args = 0
	@ link register save eliminated.
	push	{r7}
	.cfi_def_cfa_offset 4
	.cfi_offset 7, -4
	add	r7, sp, #0
	.cfi_def_cfa_register 7
	.loc 1 202 10
	movs	r3, #0
	.loc 1 203 1
	mov	r0, r3
	mov	sp, r7
	.cfi_def_cfa_register 13
	@ sp needed
	ldr	r7, [sp], #4
	.cfi_restore 7
	.cfi_def_cfa_offset 0
	bx	lr
	.cfi_endproc
.LFE130:
	.size	HAL_RCC_DeInit, .-HAL_RCC_DeInit
	.section	.text.HAL_RCC_OscConfig,"ax",%progbits
	.align	1
	.weak	HAL_RCC_OscConfig
	.syntax unified
	.thumb
	.thumb_func
	.type	HAL_RCC_OscConfig, %function
HAL_RCC_OscConfig:
.LFB131:
	.loc 1 220 1
	.cfi_startproc
	@ args = 0, pretend = 0, frame = 24
	@ frame_needed = 1, uses_anonymous_args = 0
	push	{r7, lr}
	.cfi_def_cfa_offset 8
	.cfi_offset 7, -8
	.cfi_offset 14, -4
	sub	sp, sp, #24
	.cfi_def_cfa_offset 32
	add	r7, sp, #0
	.cfi_def_cfa_register 7
	str	r0, [r7, #4]
	.loc 1 224 5
	ldr	r3, [r7, #4]
	cmp	r3, #0
	bne	.L4
	.loc 1 226 12
	movs	r3, #1
	b	.L5
.L4:
	.loc 1 232 25
	ldr	r3, [r7, #4]
	ldr	r3, [r3]
	.loc 1 232 43
	and	r3, r3, #1
	.loc 1 232 5
	cmp	r3, #0
	beq	.L6
	.loc 1 237 70
	ldr	r3, .L59
	ldr	r3, [r3, #8]
	.loc 1 237 77
	and	r3, r3, #12
	.loc 1 237 7
	cmp	r3, #4
	beq	.L7
	.loc 1 238 70 discriminator 1
	ldr	r3, .L59
	ldr	r3, [r3, #8]
	.loc 1 238 77 discriminator 1
	and	r3, r3, #12
	.loc 1 237 112 discriminator 1
	cmp	r3, #8
	bne	.L8
	.loc 1 238 177
	ldr	r3, .L59
	ldr	r3, [r3, #4]
	.loc 1 238 187
	and	r3, r3, #4194304
	.loc 1 238 112
	cmp	r3, #4194304
	bne	.L8
.L7:
	.loc 1 240 110
	ldr	r3, .L59
	ldr	r3, [r3]
	.loc 1 240 393
	and	r3, r3, #131072
	.loc 1 240 9
	cmp	r3, #0
	beq	.L58
	.loc 1 240 490 discriminator 1
	ldr	r3, [r7, #4]
	ldr	r3, [r3, #4]
	.loc 1 240 469 discriminator 1
	cmp	r3, #0
	bne	.L58
	.loc 1 242 16
	movs	r3, #1
	b	.L5
.L8:
	.loc 1 248 34
	ldr	r3, [r7, #4]
	ldr	r3, [r3, #4]
	.loc 1 248 15
	cmp	r3, #65536
	bne	.L10
	.loc 1 248 137 discriminator 1
	ldr	r3, .L59
	ldr	r3, [r3]
	ldr	r2, .L59
	orr	r3, r3, #65536
	str	r3, [r2]
	b	.L11
.L10:
	.loc 1 248 190 discriminator 2
	ldr	r3, [r7, #4]
	ldr	r3, [r3, #4]
	.loc 1 248 171 discriminator 2
	cmp	r3, #327680
	bne	.L12
	.loc 1 248 326 discriminator 3
	ldr	r3, .L59
	ldr	r3, [r3]
	ldr	r2, .L59
	orr	r3, r3, #262144
	str	r3, [r2]
	.loc 1 248 418 discriminator 3
	ldr	r3, .L59
	ldr	r3, [r3]
	ldr	r2, .L59
	orr	r3, r3, #65536
	str	r3, [r2]
	b	.L11
.L12:
	.loc 1 248 519 discriminator 4
	ldr	r3, .L59
	ldr	r3, [r3]
	ldr	r2, .L59
	bic	r3, r3, #65536
	str	r3, [r2]
	.loc 1 248 612 discriminator 4
	ldr	r3, .L59
	ldr	r3, [r3]
	ldr	r2, .L59
	bic	r3, r3, #262144
	str	r3, [r2]
.L11:
	.loc 1 251 28
	ldr	r3, [r7, #4]
	ldr	r3, [r3, #4]
	.loc 1 251 9
	cmp	r3, #0
	beq	.L13
	.loc 1 254 21
	bl	HAL_GetTick
	str	r0, [r7, #16]
	.loc 1 257 14
	b	.L14
.L15:
	.loc 1 259 15
	bl	HAL_GetTick
	mov	r2, r0
	.loc 1 259 29
	ldr	r3, [r7, #16]
	subs	r3, r2, r3
	.loc 1 259 13
	cmp	r3, #100
	bls	.L14
	.loc 1 261 20
	movs	r3, #3
	b	.L5
.L14:
	.loc 1 257 114
	ldr	r3, .L59
	ldr	r3, [r3]
	.loc 1 257 397
	and	r3, r3, #131072
	.loc 1 257 463
	cmp	r3, #0
	beq	.L15
	b	.L6
.L13:
	.loc 1 268 21
	bl	HAL_GetTick
	str	r0, [r7, #16]
	.loc 1 271 14
	b	.L16
.L17:
	.loc 1 273 15
	bl	HAL_GetTick
	mov	r2, r0
	.loc 1 273 29
	ldr	r3, [r7, #16]
	subs	r3, r2, r3
	.loc 1 273 13
	cmp	r3, #100
	bls	.L16
	.loc 1 275 20
	movs	r3, #3
	b	.L5
.L16:
	.loc 1 271 114
	ldr	r3, .L59
	ldr	r3, [r3]
	.loc 1 271 397
	and	r3, r3, #131072
	.loc 1 271 463
	cmp	r3, #0
	bne	.L17
	b	.L6
.L58:
	.loc 1 240 9
	nop
.L6:
	.loc 1 282 25
	ldr	r3, [r7, #4]
	ldr	r3, [r3]
	.loc 1 282 43
	and	r3, r3, #2
	.loc 1 282 5
	cmp	r3, #0
	beq	.L18
	.loc 1 289 70
	ldr	r3, .L59
	ldr	r3, [r3, #8]
	.loc 1 289 77
	and	r3, r3, #12
	.loc 1 289 7
	cmp	r3, #0
	beq	.L19
	.loc 1 290 70 discriminator 1
	ldr	r3, .L59
	ldr	r3, [r3, #8]
	.loc 1 290 77 discriminator 1
	and	r3, r3, #12
	.loc 1 289 112 discriminator 1
	cmp	r3, #8
	bne	.L20
	.loc 1 290 177
	ldr	r3, .L59
	ldr	r3, [r3, #4]
	.loc 1 290 187
	and	r3, r3, #4194304
	.loc 1 290 112
	cmp	r3, #0
	bne	.L20
.L19:
	.loc 1 293 110
	ldr	r3, .L59
	ldr	r3, [r3]
	.loc 1 293 393
	and	r3, r3, #2
	.loc 1 293 9
	cmp	r3, #0
	beq	.L21
	.loc 1 293 490 discriminator 1
	ldr	r3, [r7, #4]
	ldr	r3, [r3, #12]
	.loc 1 293 469 discriminator 1
	cmp	r3, #1
	beq	.L21
	.loc 1 295 16
	movs	r3, #1
	b	.L5
.L21:
	.loc 1 301 148
	ldr	r3, .L59
	ldr	r3, [r3]
	.loc 1 301 156
	bic	r2, r3, #248
	.loc 1 301 212
	ldr	r3, [r7, #4]
	ldr	r3, [r3, #16]
	.loc 1 301 235
	lsls	r3, r3, #3
	.loc 1 301 73
	ldr	r1, .L59
	.loc 1 301 181
	orrs	r3, r3, r2
	.loc 1 301 80
	str	r3, [r1]
	.loc 1 293 9
	b	.L18
.L20:
	.loc 1 307 28
	ldr	r3, [r7, #4]
	ldr	r3, [r3, #12]
	.loc 1 307 9
	cmp	r3, #0
	beq	.L22
	.loc 1 310 10
	ldr	r3, .L59+4
	.loc 1 310 143
	movs	r2, #1
	str	r2, [r3]
	.loc 1 313 21
	bl	HAL_GetTick
	str	r0, [r7, #16]
	.loc 1 316 14
	b	.L23
.L24:
	.loc 1 318 15
	bl	HAL_GetTick
	mov	r2, r0
	.loc 1 318 29
	ldr	r3, [r7, #16]
	subs	r3, r2, r3
	.loc 1 318 13
	cmp	r3, #2
	bls	.L23
	.loc 1 320 20
	movs	r3, #3
	b	.L5
.L23:
	.loc 1 316 114
	ldr	r3, .L59
	ldr	r3, [r3]
	.loc 1 316 397
	and	r3, r3, #2
	.loc 1 316 463
	cmp	r3, #0
	beq	.L24
	.loc 1 325 148
	ldr	r3, .L59
	ldr	r3, [r3]
	.loc 1 325 156
	bic	r2, r3, #248
	.loc 1 325 212
	ldr	r3, [r7, #4]
	ldr	r3, [r3, #16]
	.loc 1 325 235
	lsls	r3, r3, #3
	.loc 1 325 73
	ldr	r1, .L59
	.loc 1 325 181
	orrs	r3, r3, r2
	.loc 1 325 80
	str	r3, [r1]
	b	.L18
.L22:
	.loc 1 330 10
	ldr	r3, .L59+4
	.loc 1 330 143
	movs	r2, #0
	str	r2, [r3]
	.loc 1 333 21
	bl	HAL_GetTick
	str	r0, [r7, #16]
	.loc 1 336 14
	b	.L25
.L26:
	.loc 1 338 15
	bl	HAL_GetTick
	mov	r2, r0
	.loc 1 338 29
	ldr	r3, [r7, #16]
	subs	r3, r2, r3
	.loc 1 338 13
	cmp	r3, #2
	bls	.L25
	.loc 1 340 20
	movs	r3, #3
	b	.L5
.L25:
	.loc 1 336 114
	ldr	r3, .L59
	ldr	r3, [r3]
	.loc 1 336 397
	and	r3, r3, #2
	.loc 1 336 463
	cmp	r3, #0
	bne	.L26
.L18:
	.loc 1 347 25
	ldr	r3, [r7, #4]
	ldr	r3, [r3]
	.loc 1 347 43
	and	r3, r3, #8
	.loc 1 347 5
	cmp	r3, #0
	beq	.L27
	.loc 1 353 26
	ldr	r3, [r7, #4]
	ldr	r3, [r3, #20]
	.loc 1 353 7
	cmp	r3, #0
	beq	.L28
	.loc 1 356 8
	ldr	r3, .L59+8
	.loc 1 356 141
	movs	r2, #1
	str	r2, [r3]
	.loc 1 359 19
	bl	HAL_GetTick
	str	r0, [r7, #16]
	.loc 1 362 12
	b	.L29
.L30:
	.loc 1 364 13
	bl	HAL_GetTick
	mov	r2, r0
	.loc 1 364 27
	ldr	r3, [r7, #16]
	subs	r3, r2, r3
	.loc 1 364 11
	cmp	r3, #2
	bls	.L29
	.loc 1 366 18
	movs	r3, #3
	b	.L5
.L29:
	.loc 1 362 319
	ldr	r3, .L59
	ldr	r3, [r3, #116]
	.loc 1 362 395
	and	r3, r3, #2
	.loc 1 362 461
	cmp	r3, #0
	beq	.L30
	b	.L27
.L28:
	.loc 1 373 8
	ldr	r3, .L59+8
	.loc 1 373 141
	movs	r2, #0
	str	r2, [r3]
	.loc 1 376 19
	bl	HAL_GetTick
	str	r0, [r7, #16]
	.loc 1 379 12
	b	.L31
.L32:
	.loc 1 381 13
	bl	HAL_GetTick
	mov	r2, r0
	.loc 1 381 27
	ldr	r3, [r7, #16]
	subs	r3, r2, r3
	.loc 1 381 11
	cmp	r3, #2
	bls	.L31
	.loc 1 383 18
	movs	r3, #3
	b	.L5
.L60:
	.align	2
.L59:
	.word	1073887232
	.word	1111949312
	.word	1111953024
.L31:
	.loc 1 379 319
	ldr	r3, .L61
	ldr	r3, [r3, #116]
	.loc 1 379 395
	and	r3, r3, #2
	.loc 1 379 461
	cmp	r3, #0
	bne	.L32
.L27:
	.loc 1 389 25
	ldr	r3, [r7, #4]
	ldr	r3, [r3]
	.loc 1 389 43
	and	r3, r3, #4
	.loc 1 389 5
	cmp	r3, #0
	beq	.L33
.LBB2:
	.loc 1 391 16
	movs	r3, #0
	strb	r3, [r7, #23]
	.loc 1 398 70
	ldr	r3, .L61
	ldr	r3, [r3, #64]
	.loc 1 398 80
	and	r3, r3, #268435456
	.loc 1 398 7
	cmp	r3, #0
	bne	.L34
.LBB3:
	.loc 1 400 30
	movs	r3, #0
	str	r3, [r7, #8]
	.loc 1 400 119
	ldr	r3, .L61
	ldr	r3, [r3, #64]
	ldr	r2, .L61
	orr	r3, r3, #268435456
	str	r3, [r2, #64]
	.loc 1 400 214
	ldr	r3, .L61
	ldr	r3, [r3, #64]
	.loc 1 400 225
	and	r3, r3, #268435456
	.loc 1 400 150
	str	r3, [r7, #8]
	.loc 1 400 248
	ldr	r3, [r7, #8]
.LBE3:
	.loc 1 401 21
	movs	r3, #1
	strb	r3, [r7, #23]
.L34:
	.loc 1 404 54
	ldr	r3, .L61+4
	ldr	r3, [r3]
	.loc 1 404 60
	and	r3, r3, #256
	.loc 1 404 7
	cmp	r3, #0
	bne	.L35
	.loc 1 407 58
	ldr	r3, .L61+4
	ldr	r3, [r3]
	ldr	r2, .L61+4
	orr	r3, r3, #256
	str	r3, [r2]
	.loc 1 410 19
	bl	HAL_GetTick
	str	r0, [r7, #16]
	.loc 1 412 12
	b	.L36
.L37:
	.loc 1 414 13
	bl	HAL_GetTick
	mov	r2, r0
	.loc 1 414 27
	ldr	r3, [r7, #16]
	subs	r3, r2, r3
	.loc 1 414 11
	cmp	r3, #2
	bls	.L36
	.loc 1 416 18
	movs	r3, #3
	b	.L5
.L36:
	.loc 1 412 59
	ldr	r3, .L61+4
	ldr	r3, [r3]
	.loc 1 412 65
	and	r3, r3, #256
	.loc 1 412 86
	cmp	r3, #0
	beq	.L37
.L35:
	.loc 1 422 31
	ldr	r3, [r7, #4]
	ldr	r3, [r3, #8]
	.loc 1 422 12
	cmp	r3, #1
	bne	.L38
	.loc 1 422 135 discriminator 1
	ldr	r3, .L61
	ldr	r3, [r3, #112]
	ldr	r2, .L61
	orr	r3, r3, #1
	str	r3, [r2, #112]
	b	.L39
.L38:
	.loc 1 422 186 discriminator 2
	ldr	r3, [r7, #4]
	ldr	r3, [r3, #8]
	.loc 1 422 167 discriminator 2
	cmp	r3, #5
	bne	.L40
	.loc 1 422 322 discriminator 3
	ldr	r3, .L61
	ldr	r3, [r3, #112]
	ldr	r2, .L61
	orr	r3, r3, #4
	str	r3, [r2, #112]
	.loc 1 422 415 discriminator 3
	ldr	r3, .L61
	ldr	r3, [r3, #112]
	ldr	r2, .L61
	orr	r3, r3, #1
	str	r3, [r2, #112]
	b	.L39
.L40:
	.loc 1 422 517 discriminator 4
	ldr	r3, .L61
	ldr	r3, [r3, #112]
	ldr	r2, .L61
	bic	r3, r3, #1
	str	r3, [r2, #112]
	.loc 1 422 611 discriminator 4
	ldr	r3, .L61
	ldr	r3, [r3, #112]
	ldr	r2, .L61
	bic	r3, r3, #4
	str	r3, [r2, #112]
.L39:
	.loc 1 424 26
	ldr	r3, [r7, #4]
	ldr	r3, [r3, #8]
	.loc 1 424 7
	cmp	r3, #0
	beq	.L41
	.loc 1 427 19
	bl	HAL_GetTick
	str	r0, [r7, #16]
	.loc 1 430 12
	b	.L42
.L43:
	.loc 1 432 13
	bl	HAL_GetTick
	mov	r2, r0
	.loc 1 432 27
	ldr	r3, [r7, #16]
	subs	r3, r2, r3
	.loc 1 432 11
	movw	r2, #5000
	cmp	r3, r2
	bls	.L42
	.loc 1 434 18
	movs	r3, #3
	b	.L5
.L42:
	.loc 1 430 215
	ldr	r3, .L61
	ldr	r3, [r3, #112]
	.loc 1 430 395
	and	r3, r3, #2
	.loc 1 430 461
	cmp	r3, #0
	beq	.L43
	b	.L44
.L41:
	.loc 1 441 19
	bl	HAL_GetTick
	str	r0, [r7, #16]
	.loc 1 444 12
	b	.L45
.L46:
	.loc 1 446 13
	bl	HAL_GetTick
	mov	r2, r0
	.loc 1 446 27
	ldr	r3, [r7, #16]
	subs	r3, r2, r3
	.loc 1 446 11
	movw	r2, #5000
	cmp	r3, r2
	bls	.L45
	.loc 1 448 18
	movs	r3, #3
	b	.L5
.L45:
	.loc 1 444 215
	ldr	r3, .L61
	ldr	r3, [r3, #112]
	.loc 1 444 395
	and	r3, r3, #2
	.loc 1 444 461
	cmp	r3, #0
	bne	.L46
.L44:
	.loc 1 454 7
	ldrb	r3, [r7, #23]	@ zero_extendqisi2
	cmp	r3, #1
	bne	.L33
	.loc 1 456 78
	ldr	r3, .L61
	ldr	r3, [r3, #64]
	ldr	r2, .L61
	bic	r3, r3, #268435456
	str	r3, [r2, #64]
.L33:
.LBE2:
	.loc 1 462 30
	ldr	r3, [r7, #4]
	ldr	r3, [r3, #24]
	.loc 1 462 6
	cmp	r3, #0
	beq	.L47
	.loc 1 465 69
	ldr	r3, .L61
	ldr	r3, [r3, #8]
	.loc 1 465 76
	and	r3, r3, #12
	.loc 1 465 7
	cmp	r3, #8
	beq	.L48
	.loc 1 467 33
	ldr	r3, [r7, #4]
	ldr	r3, [r3, #24]
	.loc 1 467 9
	cmp	r3, #2
	bne	.L49
	.loc 1 477 10
	ldr	r3, .L61+8
	.loc 1 477 143
	movs	r2, #0
	str	r2, [r3]
	.loc 1 480 21
	bl	HAL_GetTick
	str	r0, [r7, #16]
	.loc 1 483 14
	b	.L50
.L51:
	.loc 1 485 15
	bl	HAL_GetTick
	mov	r2, r0
	.loc 1 485 29
	ldr	r3, [r7, #16]
	subs	r3, r2, r3
	.loc 1 485 13
	cmp	r3, #2
	bls	.L50
	.loc 1 487 20
	movs	r3, #3
	b	.L5
.L50:
	.loc 1 483 114
	ldr	r3, .L61
	ldr	r3, [r3]
	.loc 1 483 397
	and	r3, r3, #33554432
	.loc 1 483 463
	cmp	r3, #0
	bne	.L51
	.loc 1 492 108
	ldr	r3, [r7, #4]
	ldr	r2, [r3, #28]
	.loc 1 492 143
	ldr	r3, [r7, #4]
	ldr	r3, [r3, #32]
	.loc 1 492 119
	orrs	r2, r2, r3
	.loc 1 492 174
	ldr	r3, [r7, #4]
	ldr	r3, [r3, #36]
	.loc 1 492 180
	lsls	r3, r3, #6
	.loc 1 492 149
	orrs	r2, r2, r3
	.loc 1 492 216
	ldr	r3, [r7, #4]
	ldr	r3, [r3, #40]
	.loc 1 492 222
	lsrs	r3, r3, #1
	.loc 1 492 229
	subs	r3, r3, #1
	.loc 1 492 235
	lsls	r3, r3, #16
	.loc 1 492 189
	orrs	r2, r2, r3
	.loc 1 492 270
	ldr	r3, [r7, #4]
	ldr	r3, [r3, #44]
	.loc 1 492 276
	lsls	r3, r3, #24
	.loc 1 492 71
	ldr	r1, .L61
	.loc 1 492 245
	orrs	r3, r3, r2
	.loc 1 492 82
	str	r3, [r1, #4]
	.loc 1 498 10
	ldr	r3, .L61+8
	.loc 1 498 143
	movs	r2, #1
	str	r2, [r3]
	.loc 1 501 21
	bl	HAL_GetTick
	str	r0, [r7, #16]
	.loc 1 504 14
	b	.L52
.L53:
	.loc 1 506 15
	bl	HAL_GetTick
	mov	r2, r0
	.loc 1 506 29
	ldr	r3, [r7, #16]
	subs	r3, r2, r3
	.loc 1 506 13
	cmp	r3, #2
	bls	.L52
	.loc 1 508 20
	movs	r3, #3
	b	.L5
.L52:
	.loc 1 504 114
	ldr	r3, .L61
	ldr	r3, [r3]
	.loc 1 504 397
	and	r3, r3, #33554432
	.loc 1 504 463
	cmp	r3, #0
	beq	.L53
	b	.L47
.L49:
	.loc 1 515 10
	ldr	r3, .L61+8
	.loc 1 515 143
	movs	r2, #0
	str	r2, [r3]
	.loc 1 518 21
	bl	HAL_GetTick
	str	r0, [r7, #16]
	.loc 1 521 14
	b	.L54
.L55:
	.loc 1 523 15
	bl	HAL_GetTick
	mov	r2, r0
	.loc 1 523 29
	ldr	r3, [r7, #16]
	subs	r3, r2, r3
	.loc 1 523 13
	cmp	r3, #2
	bls	.L54
	.loc 1 525 20
	movs	r3, #3
	b	.L5
.L54:
	.loc 1 521 114
	ldr	r3, .L61
	ldr	r3, [r3]
	.loc 1 521 397
	and	r3, r3, #33554432
	.loc 1 521 463
	cmp	r3, #0
	bne	.L55
	b	.L47
.L48:
	.loc 1 533 33
	ldr	r3, [r7, #4]
	ldr	r3, [r3, #24]
	.loc 1 533 9
	cmp	r3, #1
	bne	.L56
	.loc 1 535 16
	movs	r3, #1
	b	.L5
.L62:
	.align	2
.L61:
	.word	1073887232
	.word	1073770496
	.word	1111949408
.L56:
	.loc 1 540 82
	ldr	r3, .L63
	.loc 1 540 20
	ldr	r3, [r3, #4]
	str	r3, [r7, #12]
	.loc 1 550 37
	ldr	r3, [r7, #4]
	ldr	r3, [r3, #24]
	.loc 1 550 12
	cmp	r3, #1
	beq	.L57
	.loc 1 551 28 discriminator 1
	ldr	r3, [r7, #12]
	and	r2, r3, #4194304
	.loc 1 551 75 discriminator 1
	ldr	r3, [r7, #4]
	ldr	r3, [r3, #28]
	.loc 1 550 68 discriminator 1
	cmp	r2, r3
	bne	.L57
	.loc 1 552 28
	ldr	r3, [r7, #12]
	and	r2, r3, #63
	.loc 1 552 83
	ldr	r3, [r7, #4]
	ldr	r3, [r3, #32]
	.loc 1 551 87
	cmp	r2, r3
	bne	.L57
	.loc 1 553 28
	ldr	r2, [r7, #12]
	movw	r3, #32704
	ands	r3, r3, r2
	.loc 1 553 77
	ldr	r2, [r7, #4]
	ldr	r2, [r2, #36]
	.loc 1 553 84
	lsls	r2, r2, #6
	.loc 1 552 92
	cmp	r3, r2
	bne	.L57
	.loc 1 554 28
	ldr	r3, [r7, #12]
	and	r2, r3, #196608
	.loc 1 554 78
	ldr	r3, [r7, #4]
	ldr	r3, [r3, #40]
	.loc 1 554 84
	lsrs	r3, r3, #1
	.loc 1 554 91
	subs	r3, r3, #1
	.loc 1 554 98
	lsls	r3, r3, #16
	.loc 1 553 93
	cmp	r2, r3
	bne	.L57
	.loc 1 555 28
	ldr	r3, [r7, #12]
	and	r2, r3, #251658240
	.loc 1 555 76
	ldr	r3, [r7, #4]
	ldr	r3, [r3, #44]
	.loc 1 555 82
	lsls	r3, r3, #24
	.loc 1 554 108
	cmp	r2, r3
	beq	.L47
.L57:
	.loc 1 558 18
	movs	r3, #1
	b	.L5
.L47:
	.loc 1 563 10
	movs	r3, #0
.L5:
	.loc 1 564 1
	mov	r0, r3
	adds	r7, r7, #24
	.cfi_def_cfa_offset 8
	mov	sp, r7
	.cfi_def_cfa_register 13
	@ sp needed
	pop	{r7, pc}
.L64:
	.align	2
.L63:
	.word	1073887232
	.cfi_endproc
.LFE131:
	.size	HAL_RCC_OscConfig, .-HAL_RCC_OscConfig
	.section	.text.HAL_RCC_ClockConfig,"ax",%progbits
	.align	1
	.global	HAL_RCC_ClockConfig
	.syntax unified
	.thumb
	.thumb_func
	.type	HAL_RCC_ClockConfig, %function
HAL_RCC_ClockConfig:
.LFB132:
	.loc 1 592 1
	.cfi_startproc
	@ args = 0, pretend = 0, frame = 16
	@ frame_needed = 1, uses_anonymous_args = 0
	push	{r7, lr}
	.cfi_def_cfa_offset 8
	.cfi_offset 7, -8
	.cfi_offset 14, -4
	sub	sp, sp, #16
	.cfi_def_cfa_offset 24
	add	r7, sp, #0
	.cfi_def_cfa_register 7
	str	r0, [r7, #4]
	str	r1, [r7]
	.loc 1 596 5
	ldr	r3, [r7, #4]
	cmp	r3, #0
	bne	.L66
	.loc 1 598 12
	movs	r3, #1
	b	.L67
.L66:
	.loc 1 610 83
	ldr	r3, .L83
	ldr	r3, [r3]
	.loc 1 610 91
	and	r3, r3, #7
	.loc 1 610 5
	ldr	r2, [r7]
	cmp	r2, r3
	bls	.L68
	.loc 1 613 6
	ldr	r3, .L83
	.loc 1 613 41
	ldr	r2, [r7]
	uxtb	r2, r2
	.loc 1 613 39
	strb	r2, [r3]
	.loc 1 617 74
	ldr	r3, .L83
	ldr	r3, [r3]
	.loc 1 617 82
	and	r3, r3, #7
	.loc 1 617 7
	ldr	r2, [r7]
	cmp	r2, r3
	beq	.L68
	.loc 1 619 14
	movs	r3, #1
	b	.L67
.L68:
	.loc 1 624 25
	ldr	r3, [r7, #4]
	ldr	r3, [r3]
	.loc 1 624 38
	and	r3, r3, #2
	.loc 1 624 5
	cmp	r3, #0
	beq	.L69
	.loc 1 628 27
	ldr	r3, [r7, #4]
	ldr	r3, [r3]
	.loc 1 628 40
	and	r3, r3, #4
	.loc 1 628 7
	cmp	r3, #0
	beq	.L70
	.loc 1 630 147
	ldr	r3, .L83+4
	ldr	r3, [r3, #8]
	.loc 1 630 70
	ldr	r2, .L83+4
	.loc 1 630 182
	orr	r3, r3, #7168
	.loc 1 630 79
	str	r3, [r2, #8]
.L70:
	.loc 1 633 27
	ldr	r3, [r7, #4]
	ldr	r3, [r3]
	.loc 1 633 40
	and	r3, r3, #8
	.loc 1 633 7
	cmp	r3, #0
	beq	.L71
	.loc 1 635 147
	ldr	r3, .L83+4
	ldr	r3, [r3, #8]
	.loc 1 635 70
	ldr	r2, .L83+4
	.loc 1 635 182
	orr	r3, r3, #57344
	.loc 1 635 79
	str	r3, [r2, #8]
.L71:
	.loc 1 639 145
	ldr	r3, .L83+4
	ldr	r3, [r3, #8]
	.loc 1 639 155
	bic	r2, r3, #240
	.loc 1 639 199
	ldr	r3, [r7, #4]
	ldr	r3, [r3, #8]
	.loc 1 639 68
	ldr	r1, .L83+4
	.loc 1 639 179
	orrs	r3, r3, r2
	.loc 1 639 77
	str	r3, [r1, #8]
.L69:
	.loc 1 643 25
	ldr	r3, [r7, #4]
	ldr	r3, [r3]
	.loc 1 643 38
	and	r3, r3, #1
	.loc 1 643 5
	cmp	r3, #0
	beq	.L72
	.loc 1 648 25
	ldr	r3, [r7, #4]
	ldr	r3, [r3, #4]
	.loc 1 648 7
	cmp	r3, #1
	bne	.L73
	.loc 1 651 109
	ldr	r3, .L83+4
	ldr	r3, [r3]
	.loc 1 651 392
	and	r3, r3, #131072
	.loc 1 651 9
	cmp	r3, #0
	bne	.L74
	.loc 1 653 16
	movs	r3, #1
	b	.L67
.L73:
	.loc 1 657 31
	ldr	r3, [r7, #4]
	ldr	r3, [r3, #4]
	.loc 1 657 12
	cmp	r3, #2
	beq	.L75
	.loc 1 658 31 discriminator 1
	ldr	r3, [r7, #4]
	ldr	r3, [r3, #4]
	.loc 1 657 62 discriminator 1
	cmp	r3, #3
	bne	.L76
.L75:
	.loc 1 661 109
	ldr	r3, .L83+4
	ldr	r3, [r3]
	.loc 1 661 392
	and	r3, r3, #33554432
	.loc 1 661 9
	cmp	r3, #0
	bne	.L74
	.loc 1 663 16
	movs	r3, #1
	b	.L67
.L76:
	.loc 1 670 109
	ldr	r3, .L83+4
	ldr	r3, [r3]
	.loc 1 670 392
	and	r3, r3, #2
	.loc 1 670 9
	cmp	r3, #0
	bne	.L74
	.loc 1 672 16
	movs	r3, #1
	b	.L67
.L74:
	.loc 1 676 145
	ldr	r3, .L83+4
	ldr	r3, [r3, #8]
	.loc 1 676 155
	bic	r2, r3, #3
	.loc 1 676 200
	ldr	r3, [r7, #4]
	ldr	r3, [r3, #4]
	.loc 1 676 68
	ldr	r1, .L83+4
	.loc 1 676 179
	orrs	r3, r3, r2
	.loc 1 676 77
	str	r3, [r1, #8]
	.loc 1 679 17
	bl	HAL_GetTick
	str	r0, [r7, #12]
	.loc 1 681 11
	b	.L78
.L79:
	.loc 1 683 12
	bl	HAL_GetTick
	mov	r2, r0
	.loc 1 683 26
	ldr	r3, [r7, #12]
	subs	r3, r2, r3
	.loc 1 683 10
	movw	r2, #5000
	cmp	r3, r2
	bls	.L78
	.loc 1 685 16
	movs	r3, #3
	b	.L67
.L78:
	.loc 1 681 73
	ldr	r3, .L83+4
	ldr	r3, [r3, #8]
	.loc 1 681 80
	and	r2, r3, #12
	.loc 1 681 120
	ldr	r3, [r7, #4]
	ldr	r3, [r3, #4]
	.loc 1 681 135
	lsls	r3, r3, #2
	.loc 1 681 99
	cmp	r2, r3
	bne	.L79
.L72:
	.loc 1 691 83
	ldr	r3, .L83
	ldr	r3, [r3]
	.loc 1 691 91
	and	r3, r3, #7
	.loc 1 691 5
	ldr	r2, [r7]
	cmp	r2, r3
	bcs	.L80
	.loc 1 694 6
	ldr	r3, .L83
	.loc 1 694 41
	ldr	r2, [r7]
	uxtb	r2, r2
	.loc 1 694 39
	strb	r2, [r3]
	.loc 1 698 74
	ldr	r3, .L83
	ldr	r3, [r3]
	.loc 1 698 82
	and	r3, r3, #7
	.loc 1 698 7
	ldr	r2, [r7]
	cmp	r2, r3
	beq	.L80
	.loc 1 700 14
	movs	r3, #1
	b	.L67
.L80:
	.loc 1 705 25
	ldr	r3, [r7, #4]
	ldr	r3, [r3]
	.loc 1 705 38
	and	r3, r3, #4
	.loc 1 705 5
	cmp	r3, #0
	beq	.L81
	.loc 1 708 145
	ldr	r3, .L83+4
	ldr	r3, [r3, #8]
	.loc 1 708 155
	bic	r2, r3, #7168
	.loc 1 708 200
	ldr	r3, [r7, #4]
	ldr	r3, [r3, #12]
	.loc 1 708 68
	ldr	r1, .L83+4
	.loc 1 708 180
	orrs	r3, r3, r2
	.loc 1 708 77
	str	r3, [r1, #8]
.L81:
	.loc 1 712 25
	ldr	r3, [r7, #4]
	ldr	r3, [r3]
	.loc 1 712 38
	and	r3, r3, #8
	.loc 1 712 5
	cmp	r3, #0
	beq	.L82
	.loc 1 715 145
	ldr	r3, .L83+4
	ldr	r3, [r3, #8]
	.loc 1 715 155
	bic	r2, r3, #57344
	.loc 1 715 202
	ldr	r3, [r7, #4]
	ldr	r3, [r3, #16]
	.loc 1 715 220
	lsls	r3, r3, #3
	.loc 1 715 68
	ldr	r1, .L83+4
	.loc 1 715 180
	orrs	r3, r3, r2
	.loc 1 715 77
	str	r3, [r1, #8]
.L82:
	.loc 1 719 21
	bl	HAL_RCC_GetSysClockFreq
	mov	r2, r0
	.loc 1 719 125
	ldr	r3, .L83+4
	ldr	r3, [r3, #8]
	.loc 1 719 150
	lsrs	r3, r3, #4
	and	r3, r3, #15
	.loc 1 719 63
	ldr	r1, .L83+8
	ldrb	r3, [r1, r3]	@ zero_extendqisi2
	.loc 1 719 47
	lsr	r3, r2, r3
	.loc 1 719 19
	ldr	r2, .L83+12
	str	r3, [r2]
	.loc 1 722 3
	ldr	r3, .L83+16
	ldr	r3, [r3]
	mov	r0, r3
	bl	HAL_InitTick
	.loc 1 724 10
	movs	r3, #0
.L67:
	.loc 1 725 1
	mov	r0, r3
	adds	r7, r7, #16
	.cfi_def_cfa_offset 8
	mov	sp, r7
	.cfi_def_cfa_register 13
	@ sp needed
	pop	{r7, pc}
.L84:
	.align	2
.L83:
	.word	1073888256
	.word	1073887232
	.word	AHBPrescTable
	.word	SystemCoreClock
	.word	uwTickPrio
	.cfi_endproc
.LFE132:
	.size	HAL_RCC_ClockConfig, .-HAL_RCC_ClockConfig
	.section	.text.HAL_RCC_MCOConfig,"ax",%progbits
	.align	1
	.global	HAL_RCC_MCOConfig
	.syntax unified
	.thumb
	.thumb_func
	.type	HAL_RCC_MCOConfig, %function
HAL_RCC_MCOConfig:
.LFB133:
	.loc 1 776 1
	.cfi_startproc
	@ args = 0, pretend = 0, frame = 48
	@ frame_needed = 1, uses_anonymous_args = 0
	push	{r7, lr}
	.cfi_def_cfa_offset 8
	.cfi_offset 7, -8
	.cfi_offset 14, -4
	sub	sp, sp, #48
	.cfi_def_cfa_offset 56
	add	r7, sp, #0
	.cfi_def_cfa_register 7
	str	r0, [r7, #12]
	str	r1, [r7, #8]
	str	r2, [r7, #4]
	.loc 1 782 5
	ldr	r3, [r7, #12]
	cmp	r3, #0
	bne	.L86
.LBB4:
	.loc 1 787 28
	movs	r3, #0
	str	r3, [r7, #24]
	.loc 1 787 117
	ldr	r3, .L89
	ldr	r3, [r3, #48]
	ldr	r2, .L89
	orr	r3, r3, #1
	str	r3, [r2, #48]
	.loc 1 787 211
	ldr	r3, .L89
	ldr	r3, [r3, #48]
	.loc 1 787 222
	and	r3, r3, #1
	.loc 1 787 147
	str	r3, [r7, #24]
	.loc 1 787 244
	ldr	r3, [r7, #24]
.LBE4:
	.loc 1 790 25
	mov	r3, #256
	str	r3, [r7, #28]
	.loc 1 791 26
	movs	r3, #2
	str	r3, [r7, #32]
	.loc 1 792 27
	movs	r3, #3
	str	r3, [r7, #40]
	.loc 1 793 26
	movs	r3, #0
	str	r3, [r7, #36]
	.loc 1 794 31
	movs	r3, #0
	str	r3, [r7, #44]
	.loc 1 795 5
	add	r3, r7, #28
	mov	r1, r3
	ldr	r0, .L89+4
	bl	HAL_GPIO_Init
	.loc 1 798 145
	ldr	r3, .L89
	ldr	r3, [r3, #8]
	.loc 1 798 155
	bic	r2, r3, #123731968
	.loc 1 798 219
	ldr	r1, [r7, #8]
	ldr	r3, [r7, #4]
	orrs	r3, r3, r1
	.loc 1 798 68
	ldr	r1, .L89
	.loc 1 798 201
	orrs	r3, r3, r2
	.loc 1 798 77
	str	r3, [r1, #8]
	.loc 1 830 1
	b	.L88
.L86:
.LBB5:
	.loc 1 811 28
	movs	r3, #0
	str	r3, [r7, #20]
	.loc 1 811 117
	ldr	r3, .L89
	ldr	r3, [r3, #48]
	ldr	r2, .L89
	orr	r3, r3, #4
	str	r3, [r2, #48]
	.loc 1 811 211
	ldr	r3, .L89
	ldr	r3, [r3, #48]
	.loc 1 811 222
	and	r3, r3, #4
	.loc 1 811 147
	str	r3, [r7, #20]
	.loc 1 811 244
	ldr	r3, [r7, #20]
.LBE5:
	.loc 1 814 25
	mov	r3, #512
	str	r3, [r7, #28]
	.loc 1 815 26
	movs	r3, #2
	str	r3, [r7, #32]
	.loc 1 816 27
	movs	r3, #3
	str	r3, [r7, #40]
	.loc 1 817 26
	movs	r3, #0
	str	r3, [r7, #36]
	.loc 1 818 31
	movs	r3, #0
	str	r3, [r7, #44]
	.loc 1 819 5
	add	r3, r7, #28
	mov	r1, r3
	ldr	r0, .L89+8
	bl	HAL_GPIO_Init
	.loc 1 822 145
	ldr	r3, .L89
	ldr	r3, [r3, #8]
	.loc 1 822 155
	bic	r2, r3, #-134217728
	.loc 1 822 233
	ldr	r3, [r7, #4]
	lsls	r1, r3, #3
	.loc 1 822 219
	ldr	r3, [r7, #8]
	orrs	r3, r3, r1
	.loc 1 822 68
	ldr	r1, .L89
	.loc 1 822 201
	orrs	r3, r3, r2
	.loc 1 822 77
	str	r3, [r1, #8]
.L88:
	.loc 1 830 1
	nop
	adds	r7, r7, #48
	.cfi_def_cfa_offset 8
	mov	sp, r7
	.cfi_def_cfa_register 13
	@ sp needed
	pop	{r7, pc}
.L90:
	.align	2
.L89:
	.word	1073887232
	.word	1073872896
	.word	1073874944
	.cfi_endproc
.LFE133:
	.size	HAL_RCC_MCOConfig, .-HAL_RCC_MCOConfig
	.section	.text.HAL_RCC_EnableCSS,"ax",%progbits
	.align	1
	.global	HAL_RCC_EnableCSS
	.syntax unified
	.thumb
	.thumb_func
	.type	HAL_RCC_EnableCSS, %function
HAL_RCC_EnableCSS:
.LFB134:
	.loc 1 842 1
	.cfi_startproc
	@ args = 0, pretend = 0, frame = 0
	@ frame_needed = 1, uses_anonymous_args = 0
	@ link register save eliminated.
	push	{r7}
	.cfi_def_cfa_offset 4
	.cfi_offset 7, -4
	add	r7, sp, #0
	.cfi_def_cfa_register 7
	.loc 1 843 3
	ldr	r3, .L92
	.loc 1 843 136
	movs	r2, #1
	str	r2, [r3]
	.loc 1 844 1
	nop
	mov	sp, r7
	.cfi_def_cfa_register 13
	@ sp needed
	ldr	r7, [sp], #4
	.cfi_restore 7
	.cfi_def_cfa_offset 0
	bx	lr
.L93:
	.align	2
.L92:
	.word	1111949388
	.cfi_endproc
.LFE134:
	.size	HAL_RCC_EnableCSS, .-HAL_RCC_EnableCSS
	.section	.text.HAL_RCC_DisableCSS,"ax",%progbits
	.align	1
	.global	HAL_RCC_DisableCSS
	.syntax unified
	.thumb
	.thumb_func
	.type	HAL_RCC_DisableCSS, %function
HAL_RCC_DisableCSS:
.LFB135:
	.loc 1 851 1
	.cfi_startproc
	@ args = 0, pretend = 0, frame = 0
	@ frame_needed = 1, uses_anonymous_args = 0
	@ link register save eliminated.
	push	{r7}
	.cfi_def_cfa_offset 4
	.cfi_offset 7, -4
	add	r7, sp, #0
	.cfi_def_cfa_register 7
	.loc 1 852 3
	ldr	r3, .L95
	.loc 1 852 136
	movs	r2, #0
	str	r2, [r3]
	.loc 1 853 1
	nop
	mov	sp, r7
	.cfi_def_cfa_register 13
	@ sp needed
	ldr	r7, [sp], #4
	.cfi_restore 7
	.cfi_def_cfa_offset 0
	bx	lr
.L96:
	.align	2
.L95:
	.word	1111949388
	.cfi_endproc
.LFE135:
	.size	HAL_RCC_DisableCSS, .-HAL_RCC_DisableCSS
	.global	__aeabi_uldivmod
	.section	.text.HAL_RCC_GetSysClockFreq,"ax",%progbits
	.align	1
	.weak	HAL_RCC_GetSysClockFreq
	.syntax unified
	.thumb
	.thumb_func
	.type	HAL_RCC_GetSysClockFreq, %function
HAL_RCC_GetSysClockFreq:
.LFB136:
	.loc 1 886 1
	.cfi_startproc
	@ args = 0, pretend = 0, frame = 64
	@ frame_needed = 1, uses_anonymous_args = 0
	push	{r4, r5, r7, r8, r9, r10, fp, lr}
	.cfi_def_cfa_offset 32
	.cfi_offset 4, -32
	.cfi_offset 5, -28
	.cfi_offset 7, -24
	.cfi_offset 8, -20
	.cfi_offset 9, -16
	.cfi_offset 10, -12
	.cfi_offset 11, -8
	.cfi_offset 14, -4
	sub	sp, sp, #64
	.cfi_def_cfa_offset 96
	add	r7, sp, #0
	.cfi_def_cfa_register 7
	.loc 1 887 12
	movs	r3, #0
	str	r3, [r7, #52]
	.loc 1 887 23
	movs	r3, #0
	str	r3, [r7, #60]
	.loc 1 887 36
	movs	r3, #0
	str	r3, [r7, #48]
	.loc 1 888 12
	movs	r3, #0
	str	r3, [r7, #56]
	.loc 1 891 71
	ldr	r3, .L106
	ldr	r3, [r3, #8]
	.loc 1 891 78
	and	r3, r3, #12
	.loc 1 891 3
	cmp	r3, #8
	beq	.L98
	cmp	r3, #8
	bhi	.L99
	cmp	r3, #0
	beq	.L100
	cmp	r3, #4
	beq	.L101
	b	.L99
.L100:
	.loc 1 895 20
	ldr	r3, .L106+4
	str	r3, [r7, #56]
	.loc 1 896 8
	b	.L102
.L101:
	.loc 1 900 20
	ldr	r3, .L106+8
	str	r3, [r7, #56]
	.loc 1 901 7
	b	.L102
.L98:
	.loc 1 907 74
	ldr	r3, .L106
	ldr	r3, [r3, #4]
	.loc 1 907 12
	and	r3, r3, #63
	str	r3, [r7, #52]
	.loc 1 908 82
	ldr	r3, .L106
	ldr	r3, [r3, #4]
	.loc 1 908 11
	and	r3, r3, #4194304
	.loc 1 908 9
	cmp	r3, #0
	beq	.L103
	.loc 1 911 129
	ldr	r3, .L106
	ldr	r3, [r3, #4]
	.loc 1 911 160
	lsrs	r3, r3, #6
	.loc 1 911 56
	movs	r2, #0
	str	r3, [r7, #32]
	str	r2, [r7, #36]
	ldr	r3, [r7, #32]
	ubfx	r0, r3, #0, #9
	movs	r1, #0
	.loc 1 911 53
	ldr	r3, .L106+8
	mul	r2, r3, r1
	movs	r3, #0
	mul	r3, r0, r3
	add	r3, r3, r2
	ldr	r2, .L106+8
	umull	r1, r2, r0, r2
	str	r2, [r7, #44]
	mov	r2, r1
	str	r2, [r7, #40]
	ldr	r2, [r7, #44]
	add	r3, r3, r2
	str	r3, [r7, #44]
	.loc 1 911 174
	ldr	r3, [r7, #52]
	movs	r2, #0
	str	r3, [r7, #24]
	str	r2, [r7, #28]
	.loc 1 911 172
	ldrd	r2, [r7, #24]
	ldrd	r0, [r7, #40]
	bl	__aeabi_uldivmod
	mov	r2, r0
	mov	r3, r1
	.loc 1 911 16
	mov	r3, r2
	str	r3, [r7, #60]
	b	.L104
.L103:
	.loc 1 916 141
	ldr	r3, .L106
	ldr	r3, [r3, #4]
	.loc 1 916 172
	lsrs	r3, r3, #6
	.loc 1 916 68
	movs	r2, #0
	str	r3, [r7, #16]
	str	r2, [r7, #20]
	ldr	r3, [r7, #16]
	ubfx	r10, r3, #0, #9
	mov	fp, #0
	.loc 1 916 65
	mov	r2, r10
	mov	r3, fp
	mov	r0, #0
	mov	r1, #0
	lsls	r1, r3, #5
	orr	r1, r1, r2, lsr #27
	lsls	r0, r2, #5
	mov	r2, r0
	mov	r3, r1
	subs	r8, r2, r10
	sbc	r9, r3, fp
	mov	r2, #0
	mov	r3, #0
	lsl	r3, r9, #6
	orr	r3, r3, r8, lsr #26
	lsl	r2, r8, #6
	subs	r4, r2, r8
	sbc	r5, r3, r9
	mov	r2, #0
	mov	r3, #0
	lsls	r3, r5, #3
	orr	r3, r3, r4, lsr #29
	lsls	r2, r4, #3
	mov	r4, r2
	mov	r5, r3
	adds	r3, r4, r10
	str	r3, [r7]
	adc	r3, r5, fp
	str	r3, [r7, #4]
	mov	r2, #0
	mov	r3, #0
	ldrd	r4, [r7]
	mov	r1, r5
	lsls	r3, r1, #10
	mov	r1, r4
	orr	r3, r3, r1, lsr #22
	mov	r1, r4
	lsls	r2, r1, #10
	mov	r0, r2
	mov	r1, r3
	.loc 1 916 186
	ldr	r3, [r7, #52]
	movs	r2, #0
	str	r3, [r7, #8]
	str	r2, [r7, #12]
	.loc 1 916 184
	ldrd	r2, [r7, #8]
	bl	__aeabi_uldivmod
	mov	r2, r0
	mov	r3, r1
	.loc 1 916 16
	mov	r3, r2
	str	r3, [r7, #60]
.L104:
	.loc 1 918 78
	ldr	r3, .L106
	ldr	r3, [r3, #4]
	.loc 1 918 108
	lsrs	r3, r3, #16
	and	r3, r3, #3
	.loc 1 918 118
	adds	r3, r3, #1
	.loc 1 918 12
	lsls	r3, r3, #1
	str	r3, [r7, #48]
	.loc 1 920 20
	ldr	r2, [r7, #60]
	ldr	r3, [r7, #48]
	udiv	r3, r2, r3
	str	r3, [r7, #56]
	.loc 1 921 7
	b	.L102
.L99:
	.loc 1 925 20
	ldr	r3, .L106+4
	str	r3, [r7, #56]
	.loc 1 926 7
	nop
.L102:
	.loc 1 929 10
	ldr	r3, [r7, #56]
	.loc 1 930 1
	mov	r0, r3
	adds	r7, r7, #64
	.cfi_def_cfa_offset 32
	mov	sp, r7
	.cfi_def_cfa_register 13
	@ sp needed
	pop	{r4, r5, r7, r8, r9, r10, fp, pc}
.L107:
	.align	2
.L106:
	.word	1073887232
	.word	16000000
	.word	25000000
	.cfi_endproc
.LFE136:
	.size	HAL_RCC_GetSysClockFreq, .-HAL_RCC_GetSysClockFreq
	.section	.text.HAL_RCC_GetHCLKFreq,"ax",%progbits
	.align	1
	.global	HAL_RCC_GetHCLKFreq
	.syntax unified
	.thumb
	.thumb_func
	.type	HAL_RCC_GetHCLKFreq, %function
HAL_RCC_GetHCLKFreq:
.LFB137:
	.loc 1 942 1
	.cfi_startproc
	@ args = 0, pretend = 0, frame = 0
	@ frame_needed = 1, uses_anonymous_args = 0
	@ link register save eliminated.
	push	{r7}
	.cfi_def_cfa_offset 4
	.cfi_offset 7, -4
	add	r7, sp, #0
	.cfi_def_cfa_register 7
	.loc 1 943 10
	ldr	r3, .L110
	ldr	r3, [r3]
	.loc 1 944 1
	mov	r0, r3
	mov	sp, r7
	.cfi_def_cfa_register 13
	@ sp needed
	ldr	r7, [sp], #4
	.cfi_restore 7
	.cfi_def_cfa_offset 0
	bx	lr
.L111:
	.align	2
.L110:
	.word	SystemCoreClock
	.cfi_endproc
.LFE137:
	.size	HAL_RCC_GetHCLKFreq, .-HAL_RCC_GetHCLKFreq
	.section	.text.HAL_RCC_GetPCLK1Freq,"ax",%progbits
	.align	1
	.global	HAL_RCC_GetPCLK1Freq
	.syntax unified
	.thumb
	.thumb_func
	.type	HAL_RCC_GetPCLK1Freq, %function
HAL_RCC_GetPCLK1Freq:
.LFB138:
	.loc 1 953 1
	.cfi_startproc
	@ args = 0, pretend = 0, frame = 0
	@ frame_needed = 1, uses_anonymous_args = 0
	push	{r7, lr}
	.cfi_def_cfa_offset 8
	.cfi_offset 7, -8
	.cfi_offset 14, -4
	add	r7, sp, #0
	.cfi_def_cfa_register 7
	.loc 1 955 11
	bl	HAL_RCC_GetHCLKFreq
	mov	r2, r0
	.loc 1 955 111
	ldr	r3, .L114
	ldr	r3, [r3, #8]
	.loc 1 955 137
	lsrs	r3, r3, #10
	and	r3, r3, #7
	.loc 1 955 49
	ldr	r1, .L114+4
	ldrb	r3, [r1, r3]	@ zero_extendqisi2
	.loc 1 955 33
	lsr	r3, r2, r3
	.loc 1 956 1
	mov	r0, r3
	pop	{r7, pc}
.L115:
	.align	2
.L114:
	.word	1073887232
	.word	APBPrescTable
	.cfi_endproc
.LFE138:
	.size	HAL_RCC_GetPCLK1Freq, .-HAL_RCC_GetPCLK1Freq
	.section	.text.HAL_RCC_GetPCLK2Freq,"ax",%progbits
	.align	1
	.global	HAL_RCC_GetPCLK2Freq
	.syntax unified
	.thumb
	.thumb_func
	.type	HAL_RCC_GetPCLK2Freq, %function
HAL_RCC_GetPCLK2Freq:
.LFB139:
	.loc 1 965 1
	.cfi_startproc
	@ args = 0, pretend = 0, frame = 0
	@ frame_needed = 1, uses_anonymous_args = 0
	push	{r7, lr}
	.cfi_def_cfa_offset 8
	.cfi_offset 7, -8
	.cfi_offset 14, -4
	add	r7, sp, #0
	.cfi_def_cfa_register 7
	.loc 1 967 11
	bl	HAL_RCC_GetHCLKFreq
	mov	r2, r0
	.loc 1 967 110
	ldr	r3, .L118
	ldr	r3, [r3, #8]
	.loc 1 967 136
	lsrs	r3, r3, #13
	and	r3, r3, #7
	.loc 1 967 48
	ldr	r1, .L118+4
	ldrb	r3, [r1, r3]	@ zero_extendqisi2
	.loc 1 967 32
	lsr	r3, r2, r3
	.loc 1 968 1
	mov	r0, r3
	pop	{r7, pc}
.L119:
	.align	2
.L118:
	.word	1073887232
	.word	APBPrescTable
	.cfi_endproc
.LFE139:
	.size	HAL_RCC_GetPCLK2Freq, .-HAL_RCC_GetPCLK2Freq
	.section	.text.HAL_RCC_GetOscConfig,"ax",%progbits
	.align	1
	.weak	HAL_RCC_GetOscConfig
	.syntax unified
	.thumb
	.thumb_func
	.type	HAL_RCC_GetOscConfig, %function
HAL_RCC_GetOscConfig:
.LFB140:
	.loc 1 978 1
	.cfi_startproc
	@ args = 0, pretend = 0, frame = 8
	@ frame_needed = 1, uses_anonymous_args = 0
	@ link register save eliminated.
	push	{r7}
	.cfi_def_cfa_offset 4
	.cfi_offset 7, -4
	sub	sp, sp, #12
	.cfi_def_cfa_offset 16
	add	r7, sp, #0
	.cfi_def_cfa_register 7
	str	r0, [r7, #4]
	.loc 1 980 37
	ldr	r3, [r7, #4]
	movs	r2, #15
	str	r2, [r3]
	.loc 1 983 67
	ldr	r3, .L133
	ldr	r3, [r3]
	.loc 1 983 72
	and	r3, r3, #262144
	.loc 1 983 5
	cmp	r3, #262144
	bne	.L121
	.loc 1 985 33
	ldr	r3, [r7, #4]
	mov	r2, #327680
	str	r2, [r3, #4]
	b	.L122
.L121:
	.loc 1 987 72
	ldr	r3, .L133
	ldr	r3, [r3]
	.loc 1 987 77
	and	r3, r3, #65536
	.loc 1 987 10
	cmp	r3, #65536
	bne	.L123
	.loc 1 989 33
	ldr	r3, [r7, #4]
	mov	r2, #65536
	str	r2, [r3, #4]
	b	.L122
.L123:
	.loc 1 993 33
	ldr	r3, [r7, #4]
	movs	r2, #0
	str	r2, [r3, #4]
.L122:
	.loc 1 997 67
	ldr	r3, .L133
	ldr	r3, [r3]
	.loc 1 997 72
	and	r3, r3, #1
	.loc 1 997 5
	cmp	r3, #1
	bne	.L124
	.loc 1 999 33
	ldr	r3, [r7, #4]
	movs	r2, #1
	str	r2, [r3, #12]
	b	.L125
.L124:
	.loc 1 1003 33
	ldr	r3, [r7, #4]
	movs	r2, #0
	str	r2, [r3, #12]
.L125:
	.loc 1 1006 116
	ldr	r3, .L133
	ldr	r3, [r3]
	.loc 1 1006 44
	lsrs	r3, r3, #3
	and	r2, r3, #31
	.loc 1 1006 42
	ldr	r3, [r7, #4]
	str	r2, [r3, #16]
	.loc 1 1009 67
	ldr	r3, .L133
	ldr	r3, [r3, #112]
	.loc 1 1009 74
	and	r3, r3, #4
	.loc 1 1009 5
	cmp	r3, #4
	bne	.L126
	.loc 1 1011 33
	ldr	r3, [r7, #4]
	movs	r2, #5
	str	r2, [r3, #8]
	b	.L127
.L126:
	.loc 1 1013 72
	ldr	r3, .L133
	ldr	r3, [r3, #112]
	.loc 1 1013 79
	and	r3, r3, #1
	.loc 1 1013 10
	cmp	r3, #1
	bne	.L128
	.loc 1 1015 33
	ldr	r3, [r7, #4]
	movs	r2, #1
	str	r2, [r3, #8]
	b	.L127
.L128:
	.loc 1 1019 33
	ldr	r3, [r7, #4]
	movs	r2, #0
	str	r2, [r3, #8]
.L127:
	.loc 1 1023 67
	ldr	r3, .L133
	ldr	r3, [r3, #116]
	.loc 1 1023 73
	and	r3, r3, #1
	.loc 1 1023 5
	cmp	r3, #1
	bne	.L129
	.loc 1 1025 33
	ldr	r3, [r7, #4]
	movs	r2, #1
	str	r2, [r3, #20]
	b	.L130
.L129:
	.loc 1 1029 33
	ldr	r3, [r7, #4]
	movs	r2, #0
	str	r2, [r3, #20]
.L130:
	.loc 1 1033 67
	ldr	r3, .L133
	ldr	r3, [r3]
	.loc 1 1033 72
	and	r3, r3, #16777216
	.loc 1 1033 5
	cmp	r3, #16777216
	bne	.L131
	.loc 1 1035 37
	ldr	r3, [r7, #4]
	movs	r2, #2
	str	r2, [r3, #24]
	b	.L132
.L131:
	.loc 1 1039 37
	ldr	r3, [r7, #4]
	movs	r2, #1
	str	r2, [r3, #24]
.L132:
	.loc 1 1041 109
	ldr	r3, .L133
	ldr	r3, [r3, #4]
	.loc 1 1041 38
	and	r2, r3, #4194304
	.loc 1 1041 36
	ldr	r3, [r7, #4]
	str	r2, [r3, #28]
	.loc 1 1042 104
	ldr	r3, .L133
	ldr	r3, [r3, #4]
	.loc 1 1042 33
	and	r2, r3, #63
	.loc 1 1042 31
	ldr	r3, [r7, #4]
	str	r2, [r3, #32]
	.loc 1 1043 105
	ldr	r3, .L133
	ldr	r3, [r3, #4]
	.loc 1 1043 33
	lsrs	r3, r3, #6
	ubfx	r2, r3, #0, #9
	.loc 1 1043 31
	ldr	r3, [r7, #4]
	str	r2, [r3, #36]
	.loc 1 1044 107
	ldr	r3, .L133
	ldr	r3, [r3, #4]
	.loc 1 1044 117
	and	r3, r3, #196608
	.loc 1 1044 137
	add	r3, r3, #65536
	.loc 1 1044 157
	lsls	r3, r3, #1
	.loc 1 1044 33
	lsrs	r2, r3, #16
	.loc 1 1044 31
	ldr	r3, [r7, #4]
	str	r2, [r3, #40]
	.loc 1 1045 105
	ldr	r3, .L133
	ldr	r3, [r3, #4]
	.loc 1 1045 33
	lsrs	r3, r3, #24
	and	r2, r3, #15
	.loc 1 1045 31
	ldr	r3, [r7, #4]
	str	r2, [r3, #44]
	.loc 1 1046 1
	nop
	adds	r7, r7, #12
	.cfi_def_cfa_offset 4
	mov	sp, r7
	.cfi_def_cfa_register 13
	@ sp needed
	ldr	r7, [sp], #4
	.cfi_restore 7
	.cfi_def_cfa_offset 0
	bx	lr
.L134:
	.align	2
.L133:
	.word	1073887232
	.cfi_endproc
.LFE140:
	.size	HAL_RCC_GetOscConfig, .-HAL_RCC_GetOscConfig
	.section	.text.HAL_RCC_GetClockConfig,"ax",%progbits
	.align	1
	.global	HAL_RCC_GetClockConfig
	.syntax unified
	.thumb
	.thumb_func
	.type	HAL_RCC_GetClockConfig, %function
HAL_RCC_GetClockConfig:
.LFB141:
	.loc 1 1057 1
	.cfi_startproc
	@ args = 0, pretend = 0, frame = 8
	@ frame_needed = 1, uses_anonymous_args = 0
	@ link register save eliminated.
	push	{r7}
	.cfi_def_cfa_offset 4
	.cfi_offset 7, -4
	sub	sp, sp, #12
	.cfi_def_cfa_offset 16
	add	r7, sp, #0
	.cfi_def_cfa_register 7
	str	r0, [r7, #4]
	str	r1, [r7]
	.loc 1 1059 32
	ldr	r3, [r7, #4]
	movs	r2, #15
	str	r2, [r3]
	.loc 1 1062 108
	ldr	r3, .L136
	ldr	r3, [r3, #8]
	.loc 1 1062 37
	and	r2, r3, #3
	.loc 1 1062 35
	ldr	r3, [r7, #4]
	str	r2, [r3, #4]
	.loc 1 1065 109
	ldr	r3, .L136
	ldr	r3, [r3, #8]
	.loc 1 1065 38
	and	r2, r3, #240
	.loc 1 1065 36
	ldr	r3, [r7, #4]
	str	r2, [r3, #8]
	.loc 1 1068 110
	ldr	r3, .L136
	ldr	r3, [r3, #8]
	.loc 1 1068 39
	and	r2, r3, #7168
	.loc 1 1068 37
	ldr	r3, [r7, #4]
	str	r2, [r3, #12]
	.loc 1 1071 111
	ldr	r3, .L136
	ldr	r3, [r3, #8]
	.loc 1 1071 39
	lsrs	r3, r3, #3
	and	r2, r3, #7168
	.loc 1 1071 37
	ldr	r3, [r7, #4]
	str	r2, [r3, #16]
	.loc 1 1074 89
	ldr	r3, .L136+4
	ldr	r3, [r3]
	.loc 1 1074 16
	and	r2, r3, #7
	.loc 1 1074 14
	ldr	r3, [r7]
	str	r2, [r3]
	.loc 1 1075 1
	nop
	adds	r7, r7, #12
	.cfi_def_cfa_offset 4
	mov	sp, r7
	.cfi_def_cfa_register 13
	@ sp needed
	ldr	r7, [sp], #4
	.cfi_restore 7
	.cfi_def_cfa_offset 0
	bx	lr
.L137:
	.align	2
.L136:
	.word	1073887232
	.word	1073888256
	.cfi_endproc
.LFE141:
	.size	HAL_RCC_GetClockConfig, .-HAL_RCC_GetClockConfig
	.section	.text.HAL_RCC_NMI_IRQHandler,"ax",%progbits
	.align	1
	.global	HAL_RCC_NMI_IRQHandler
	.syntax unified
	.thumb
	.thumb_func
	.type	HAL_RCC_NMI_IRQHandler, %function
HAL_RCC_NMI_IRQHandler:
.LFB142:
	.loc 1 1083 1
	.cfi_startproc
	@ args = 0, pretend = 0, frame = 0
	@ frame_needed = 1, uses_anonymous_args = 0
	push	{r7, lr}
	.cfi_def_cfa_offset 8
	.cfi_offset 7, -8
	.cfi_offset 14, -4
	add	r7, sp, #0
	.cfi_def_cfa_register 7
	.loc 1 1085 68
	ldr	r3, .L141
	ldr	r3, [r3, #12]
	.loc 1 1085 74
	and	r3, r3, #128
	.loc 1 1085 5
	cmp	r3, #128
	bne	.L140
	.loc 1 1088 5
	bl	HAL_RCC_CSSCallback
	.loc 1 1091 6
	ldr	r3, .L141+4
	.loc 1 1091 101
	movs	r2, #128
	strb	r2, [r3]
.L140:
	.loc 1 1093 1
	nop
	pop	{r7, pc}
.L142:
	.align	2
.L141:
	.word	1073887232
	.word	1073887246
	.cfi_endproc
.LFE142:
	.size	HAL_RCC_NMI_IRQHandler, .-HAL_RCC_NMI_IRQHandler
	.section	.text.HAL_RCC_CSSCallback,"ax",%progbits
	.align	1
	.weak	HAL_RCC_CSSCallback
	.syntax unified
	.thumb
	.thumb_func
	.type	HAL_RCC_CSSCallback, %function
HAL_RCC_CSSCallback:
.LFB143:
	.loc 1 1100 1
	.cfi_startproc
	@ args = 0, pretend = 0, frame = 0
	@ frame_needed = 1, uses_anonymous_args = 0
	@ link register save eliminated.
	push	{r7}
	.cfi_def_cfa_offset 4
	.cfi_offset 7, -4
	add	r7, sp, #0
	.cfi_def_cfa_register 7
	.loc 1 1104 1
	nop
	mov	sp, r7
	.cfi_def_cfa_register 13
	@ sp needed
	ldr	r7, [sp], #4
	.cfi_restore 7
	.cfi_def_cfa_offset 0
	bx	lr
	.cfi_endproc
.LFE143:
	.size	HAL_RCC_CSSCallback, .-HAL_RCC_CSSCallback
	.text
.Letext0:
	.file 2 "C:\\Program Files\\STM32CubeIDE_1.13.0\\STM32CubeIDE\\plugins\\com.st.stm32cube.ide.mcu.externaltools.gnu-tools-for-stm32.11.3.rel1.win32_1.1.0.202305231506\\tools\\arm-none-eabi\\include\\machine\\_default_types.h"
	.file 3 "C:\\Program Files\\STM32CubeIDE_1.13.0\\STM32CubeIDE\\plugins\\com.st.stm32cube.ide.mcu.externaltools.gnu-tools-for-stm32.11.3.rel1.win32_1.1.0.202305231506\\tools\\bin/../lib/gcc/arm-none-eabi/11.3.1/../../../../arm-none-eabi/include/sys/_stdint.h"
	.file 4 "../Drivers/CMSIS/Device/ST/STM32F4xx/Include/system_stm32f4xx.h"
	.file 5 "../Drivers/CMSIS/Device/ST/STM32F4xx/Include/stm32f411xe.h"
	.file 6 "../Drivers/CMSIS/Device/ST/STM32F4xx/Include/stm32f4xx.h"
	.file 7 "../Drivers/STM32F4xx_HAL_Driver/Inc/stm32f4xx_hal_def.h"
	.file 8 "../Drivers/STM32F4xx_HAL_Driver/Inc/stm32f4xx_hal_rcc_ex.h"
	.file 9 "../Drivers/STM32F4xx_HAL_Driver/Inc/stm32f4xx_hal_rcc.h"
	.file 10 "../Drivers/STM32F4xx_HAL_Driver/Inc/stm32f4xx_hal_gpio.h"
	.file 11 "../Drivers/STM32F4xx_HAL_Driver/Inc/stm32f4xx_hal.h"