	.cpu cortex-m4
	.arch armv7e-m
	.fpu fpv4-sp-d16
	.eabi_attribute 27, 1
	.eabi_attribute 28, 1
	.eabi_attribute 20, 1
	.eabi_attribute 21, 1
	.eabi_attribute 23, 3
	.eabi_attribute 24, 1
	.eabi_attribute 25, 1
	.eabi_attribute 26, 1
	.eabi_attribute 30, 6
	.eabi_attribute 34, 1
	.eabi_attribute 18, 4
	.file	"MLX90640_API.c"
	.text
.Ltext0:
	.cfi_sections	.debug_frame
	.section	.text.MLX90640_DumpEE,"ax",%progbits
	.align	1
	.global	MLX90640_DumpEE
	.syntax unified
	.thumb
	.thumb_func
	.type	MLX90640_DumpEE, %function
MLX90640_DumpEE:
.LFB0:
	.file 1 "../Hardware/functions/MLX90640_API.c"
	.loc 1 42 1
	.cfi_startproc
	@ args = 0, pretend = 0, frame = 8
	@ frame_needed = 1, uses_anonymous_args = 0
	push	{r7, lr}
	.cfi_def_cfa_offset 8
	.cfi_offset 7, -8
	.cfi_offset 14, -4
	sub	sp, sp, #8
	.cfi_def_cfa_offset 16
	add	r7, sp, #0
	.cfi_def_cfa_register 7
	mov	r3, r0
	str	r1, [r7]
	strb	r3, [r7, #7]
	.loc 1 43 13
	ldrb	r0, [r7, #7]	@ zero_extendqisi2
	ldr	r3, [r7]
	mov	r2, #832
	mov	r1, #9216
	bl	MLX90640_I2CRead
	mov	r3, r0
	.loc 1 44 1
	mov	r0, r3
	adds	r7, r7, #8
	.cfi_def_cfa_offset 8
	mov	sp, r7
	.cfi_def_cfa_register 13
	@ sp needed
	pop	{r7, pc}
	.cfi_endproc
.LFE0:
	.size	MLX90640_DumpEE, .-MLX90640_DumpEE
	.section	.text.MLX90640_SynchFrame,"ax",%progbits
	.align	1
	.global	MLX90640_SynchFrame
	.syntax unified
	.thumb
	.thumb_func
	.type	MLX90640_SynchFrame, %function
MLX90640_SynchFrame:
.LFB1:
	.loc 1 47 1
	.cfi_startproc
	@ args = 0, pretend = 0, frame = 24
	@ frame_needed = 1, uses_anonymous_args = 0
	push	{r7, lr}
	.cfi_def_cfa_offset 8
	.cfi_offset 7, -8
	.cfi_offset 14, -4
	sub	sp, sp, #24
	.cfi_def_cfa_offset 32
	add	r7, sp, #0
	.cfi_def_cfa_register 7
	mov	r3, r0
	strb	r3, [r7, #7]
	.loc 1 48 14
	movs	r3, #0
	strh	r3, [r7, #22]	@ movhi
	.loc 1 50 9
	movs	r3, #1
	str	r3, [r7, #16]
	.loc 1 52 13
	ldrb	r3, [r7, #7]	@ zero_extendqisi2
	movs	r2, #48
	mov	r1, #32768
	mov	r0, r3
	bl	MLX90640_I2CWrite
	str	r0, [r7, #16]
	.loc 1 53 7
	ldr	r3, [r7, #16]
	cmp	r3, #-1
	bne	.L6
	.loc 1 55 16
	ldr	r3, [r7, #16]
	b	.L9
.L8:
	.loc 1 60 17
	add	r3, r7, #14
	ldrb	r0, [r7, #7]	@ zero_extendqisi2
	movs	r2, #1
	mov	r1, #32768
	bl	MLX90640_I2CRead
	str	r0, [r7, #16]
	.loc 1 61 11
	ldr	r3, [r7, #16]
	cmp	r3, #0
	beq	.L7
	.loc 1 63 20
	ldr	r3, [r7, #16]
	b	.L9
.L7:
	.loc 1 66 37
	ldrh	r3, [r7, #14]
	.loc 1 66 19
	and	r3, r3, #8
	strh	r3, [r7, #22]	@ movhi
.L6:
	.loc 1 58 21
	ldrh	r3, [r7, #22]
	cmp	r3, #0
	beq	.L8
	.loc 1 69 11
	movs	r3, #0
.L9:
	.loc 1 70 1 discriminator 1
	mov	r0, r3
	adds	r7, r7, #24
	.cfi_def_cfa_offset 8
	mov	sp, r7
	.cfi_def_cfa_register 13
	@ sp needed
	pop	{r7, pc}
	.cfi_endproc
.LFE1:
	.size	MLX90640_SynchFrame, .-MLX90640_SynchFrame
	.section	.text.MLX90640_TriggerMeasurement,"ax",%progbits
	.align	1
	.global	MLX90640_TriggerMeasurement
	.syntax unified
	.thumb
	.thumb_func
	.type	MLX90640_TriggerMeasurement, %function
MLX90640_TriggerMeasurement:
.LFB2:
	.loc 1 73 1
	.cfi_startproc
	@ args = 0, pretend = 0, frame = 16
	@ frame_needed = 1, uses_anonymous_args = 0
	push	{r7, lr}
	.cfi_def_cfa_offset 8
	.cfi_offset 7, -8
	.cfi_offset 14, -4
	sub	sp, sp, #16
	.cfi_def_cfa_offset 24
	add	r7, sp, #0
	.cfi_def_cfa_register 7
	mov	r3, r0
	strb	r3, [r7, #7]
	.loc 1 74 9
	movs	r3, #1
	str	r3, [r7, #12]
	.loc 1 77 13
	add	r3, r7, #10
	ldrb	r0, [r7, #7]	@ zero_extendqisi2
	movs	r2, #1
	movw	r1, #32781
	bl	MLX90640_I2CRead
	str	r0, [r7, #12]
	.loc 1 79 8
	ldr	r3, [r7, #12]
	cmp	r3, #0
	beq	.L11
	.loc 1 81 16
	ldr	r3, [r7, #12]
	b	.L17
.L11:
	.loc 1 84 13
	ldrh	r3, [r7, #10]
	mvn	r3, r3, lsl #17
	mvn	r3, r3, lsr #17
	uxth	r3, r3
	strh	r3, [r7, #10]	@ movhi
	.loc 1 85 13
	ldrh	r2, [r7, #10]
	ldrb	r3, [r7, #7]	@ zero_extendqisi2
	movw	r1, #32781
	mov	r0, r3
	bl	MLX90640_I2CWrite
	str	r0, [r7, #12]
	.loc 1 87 8
	ldr	r3, [r7, #12]
	cmp	r3, #0
	beq	.L13
	.loc 1 89 16
	ldr	r3, [r7, #12]
	b	.L17
.L13:
	.loc 1 92 13
	bl	MLX90640_I2CGeneralReset
	str	r0, [r7, #12]
	.loc 1 94 8
	ldr	r3, [r7, #12]
	cmp	r3, #0
	beq	.L14
	.loc 1 96 16
	ldr	r3, [r7, #12]
	b	.L17
.L14:
	.loc 1 99 13
	add	r3, r7, #10
	ldrb	r0, [r7, #7]	@ zero_extendqisi2
	movs	r2, #1
	movw	r1, #32781
	bl	MLX90640_I2CRead
	str	r0, [r7, #12]
	.loc 1 101 8
	ldr	r3, [r7, #12]
	cmp	r3, #0
	beq	.L15
	.loc 1 103 16
	ldr	r3, [r7, #12]
	b	.L17
.L15:
	.loc 1 106 35
	ldrh	r3, [r7, #10]
	sxth	r3, r3
	.loc 1 106 8
	cmp	r3, #0
	bge	.L16
	.loc 1 108 16
	mvn	r3, #8
	b	.L17
.L16:
	.loc 1 111 12
	movs	r3, #0
.L17:
	.loc 1 112 1 discriminator 1
	mov	r0, r3
	adds	r7, r7, #16
	.cfi_def_cfa_offset 8
	mov	sp, r7
	.cfi_def_cfa_register 13
	@ sp needed
	pop	{r7, pc}
	.cfi_endproc
.LFE2:
	.size	MLX90640_TriggerMeasurement, .-MLX90640_TriggerMeasurement
	.section	.text.MLX90640_GetFrameData,"ax",%progbits
	.align	1
	.global	MLX90640_GetFrameData
	.syntax unified
	.thumb
	.thumb_func
	.type	MLX90640_GetFrameData, %function
MLX90640_GetFrameData:
.LFB3:
	.loc 1 115 1
	.cfi_startproc
	@ args = 0, pretend = 0, frame = 152
	@ frame_needed = 1, uses_anonymous_args = 0
	push	{r7, lr}
	.cfi_def_cfa_offset 8
	.cfi_offset 7, -8
	.cfi_offset 14, -4
	sub	sp, sp, #152
	.cfi_def_cfa_offset 160
	add	r7, sp, #0
	.cfi_def_cfa_register 7
	mov	r3, r0
	str	r1, [r7]
	strb	r3, [r7, #7]
	.loc 1 116 14
	movs	r3, #0
	strh	r3, [r7, #150]	@ movhi
	.loc 1 119 9
	movs	r3, #1
	str	r3, [r7, #144]
	.loc 1 121 13
	movs	r3, #0
	strb	r3, [r7, #149]
	.loc 1 123 10
	b	.L19
.L22:
	.loc 1 125 17
	add	r3, r7, #140
	ldrb	r0, [r7, #7]	@ zero_extendqisi2
	movs	r2, #1
	mov	r1, #32768
	bl	MLX90640_I2CRead
	str	r0, [r7, #144]
	.loc 1 126 11
	ldr	r3, [r7, #144]
	cmp	r3, #0
	beq	.L20
	.loc 1 128 20
	ldr	r3, [r7, #144]
	b	.L31
.L20:
	.loc 1 131 37
	ldrh	r3, [r7, #140]
	.loc 1 131 19
	and	r3, r3, #8
	strh	r3, [r7, #150]	@ movhi
.L19:
	.loc 1 123 21
	ldrh	r3, [r7, #150]
	cmp	r3, #0
	beq	.L22
	.loc 1 134 13
	ldrb	r3, [r7, #7]	@ zero_extendqisi2
	movs	r2, #48
	mov	r1, #32768
	mov	r0, r3
	bl	MLX90640_I2CWrite
	str	r0, [r7, #144]
	.loc 1 135 7
	ldr	r3, [r7, #144]
	cmp	r3, #-1
	bne	.L23
	.loc 1 137 16
	ldr	r3, [r7, #144]
	b	.L31
.L23:
	.loc 1 140 13
	ldrb	r0, [r7, #7]	@ zero_extendqisi2
	ldr	r3, [r7]
	mov	r2, #768
	mov	r1, #1024
	bl	MLX90640_I2CRead
	str	r0, [r7, #144]
	.loc 1 141 7
	ldr	r3, [r7, #144]
	cmp	r3, #0
	beq	.L24
	.loc 1 143 16
	ldr	r3, [r7, #144]
	b	.L31
.L24:
	.loc 1 146 13
	add	r3, r7, #12
	ldrb	r0, [r7, #7]	@ zero_extendqisi2
	movs	r2, #64
	mov	r1, #1792
	bl	MLX90640_I2CRead
	str	r0, [r7, #144]
	.loc 1 147 7
	ldr	r3, [r7, #144]
	cmp	r3, #0
	beq	.L25
	.loc 1 149 16
	ldr	r3, [r7, #144]
	b	.L31
.L25:
	.loc 1 152 13
	add	r3, r7, #142
	ldrb	r0, [r7, #7]	@ zero_extendqisi2
	movs	r2, #1
	movw	r1, #32781
	bl	MLX90640_I2CRead
	str	r0, [r7, #144]
	.loc 1 153 14
	ldr	r3, [r7]
	add	r3, r3, #1664
	.loc 1 153 20
	ldrh	r2, [r7, #142]
	strh	r2, [r3]	@ movhi
	.loc 1 155 38
	ldrh	r2, [r7, #140]
	.loc 1 155 14
	ldr	r3, [r7]
	addw	r3, r3, #1666
	.loc 1 155 38
	and	r2, r2, #1
	uxth	r2, r2
	.loc 1 155 20
	strh	r2, [r3]	@ movhi
	.loc 1 157 7
	ldr	r3, [r7, #144]
	cmp	r3, #0
	beq	.L26
	.loc 1 159 16
	ldr	r3, [r7, #144]
	b	.L31
.L26:
	.loc 1 162 13
	add	r3, r7, #12
	mov	r0, r3
	bl	ValidateAuxData
	str	r0, [r7, #144]
	.loc 1 163 7
	ldr	r3, [r7, #144]
	cmp	r3, #0
	bne	.L27
	.loc 1 165 16
	movs	r3, #0
	strb	r3, [r7, #149]
	.loc 1 165 9
	b	.L28
.L29:
	.loc 1 167 38 discriminator 3
	ldrb	r3, [r7, #149]	@ zero_extendqisi2
	.loc 1 167 22 discriminator 3
	ldrb	r2, [r7, #149]	@ zero_extendqisi2
	add	r2, r2, #768
	lsls	r2, r2, #1
	ldr	r1, [r7]
	add	r2, r2, r1
	.loc 1 167 38 discriminator 3
	lsls	r3, r3, #1
	adds	r3, r3, #152
	add	r3, r3, r7
	ldrh	r3, [r3, #-140]
	.loc 1 167 32 discriminator 3
	strh	r3, [r2]	@ movhi
	.loc 1 165 31 discriminator 3
	ldrb	r3, [r7, #149]	@ zero_extendqisi2
	adds	r3, r3, #1
	strb	r3, [r7, #149]
.L28:
	.loc 1 165 23 discriminator 1
	ldrb	r3, [r7, #149]	@ zero_extendqisi2
	cmp	r3, #63
	bls	.L29
.L27:
	.loc 1 171 13
	ldr	r0, [r7]
	bl	ValidateFrameData
	str	r0, [r7, #144]
	.loc 1 172 8
	ldr	r3, [r7, #144]
	cmp	r3, #0
	beq	.L30
	.loc 1 174 16
	ldr	r3, [r7, #144]
	b	.L31
.L30:
	.loc 1 177 21
	ldr	r3, [r7]
	addw	r3, r3, #1666
	ldrh	r3, [r3]
.L31:
	.loc 1 178 1 discriminator 1
	mov	r0, r3
	adds	r7, r7, #152
	.cfi_def_cfa_offset 8
	mov	sp, r7
	.cfi_def_cfa_register 13
	@ sp needed
	pop	{r7, pc}
	.cfi_endproc
.LFE3:
	.size	MLX90640_GetFrameData, .-MLX90640_GetFrameData
	.section	.text.ValidateFrameData,"ax",%progbits
	.align	1
	.syntax unified
	.thumb
	.thumb_func
	.type	ValidateFrameData, %function
ValidateFrameData:
.LFB4:
	.loc 1 181 1
	.cfi_startproc
	@ args = 0, pretend = 0, frame = 16
	@ frame_needed = 1, uses_anonymous_args = 0
	@ link register save eliminated.
	push	{r7}
	.cfi_def_cfa_offset 4
	.cfi_offset 7, -4
	sub	sp, sp, #20
	.cfi_def_cfa_offset 24
	add	r7, sp, #0
	.cfi_def_cfa_register 7
	str	r0, [r7, #4]
	.loc 1 182 13
	movs	r3, #0
	strb	r3, [r7, #15]
.LBB2:
	.loc 1 184 13
	movs	r3, #0
	str	r3, [r7, #8]
	.loc 1 184 5
	b	.L33
.L36:
	.loc 1 186 22
	ldr	r3, [r7, #8]
	lsls	r3, r3, #1
	ldr	r2, [r7, #4]
	add	r3, r3, r2
	ldrh	r3, [r3]
	.loc 1 186 11
	movw	r2, #32767
	cmp	r3, r2
	bne	.L34
	.loc 1 186 48 discriminator 1
	ldrb	r3, [r7, #15]	@ zero_extendqisi2
	uxth	r3, r3
	and	r3, r3, #1
	uxth	r2, r3
	.loc 1 186 60 discriminator 1
	ldr	r3, [r7, #4]
	addw	r3, r3, #1666
	ldrh	r3, [r3]
	.loc 1 186 37 discriminator 1
	cmp	r2, r3
	bne	.L34
	.loc 1 186 75 discriminator 2
	mvn	r3, #7
	b	.L35
.L34:
	.loc 1 187 14 discriminator 2
	ldrb	r3, [r7, #15]
	adds	r3, r3, #1
	strb	r3, [r7, #15]
	.loc 1 184 26 discriminator 2
	ldr	r3, [r7, #8]
	adds	r3, r3, #32
	str	r3, [r7, #8]
.L33:
	.loc 1 184 19 discriminator 1
	ldr	r3, [r7, #8]
	cmp	r3, #768
	blt	.L36
.LBE2:
	.loc 1 190 12
	movs	r3, #0
.L35:
	.loc 1 191 1
	mov	r0, r3
	adds	r7, r7, #20
	.cfi_def_cfa_offset 4
	mov	sp, r7
	.cfi_def_cfa_register 13
	@ sp needed
	ldr	r7, [sp], #4
	.cfi_restore 7
	.cfi_def_cfa_offset 0
	bx	lr
	.cfi_endproc
.LFE4:
	.size	ValidateFrameData, .-ValidateFrameData
	.section	.text.ValidateAuxData,"ax",%progbits
	.align	1
	.syntax unified
	.thumb
	.thumb_func
	.type	ValidateAuxData, %function
ValidateAuxData:
.LFB5:
	.loc 1 194 1
	.cfi_startproc
	@ args = 0, pretend = 0, frame = 32
	@ frame_needed = 1, uses_anonymous_args = 0
	@ link register save eliminated.
	push	{r7}
	.cfi_def_cfa_offset 4
	.cfi_offset 7, -4
	sub	sp, sp, #36
	.cfi_def_cfa_offset 40
	add	r7, sp, #0
	.cfi_def_cfa_register 7
	str	r0, [r7, #4]
	.loc 1 196 15
	ldr	r3, [r7, #4]
	ldrh	r3, [r3]
	.loc 1 196 7
	movw	r2, #32767
	cmp	r3, r2
	bne	.L38
	.loc 1 196 37 discriminator 1
	mvn	r3, #7
	b	.L39
.L38:
.LBB3:
	.loc 1 198 13
	movs	r3, #8
	str	r3, [r7, #28]
	.loc 1 198 5
	b	.L40
.L42:
	.loc 1 200 19
	ldr	r3, [r7, #28]
	lsls	r3, r3, #1
	ldr	r2, [r7, #4]
	add	r3, r3, r2
	ldrh	r3, [r3]
	.loc 1 200 11
	movw	r2, #32767
	cmp	r3, r2
	bne	.L41
	.loc 1 200 41 discriminator 1
	mvn	r3, #7
	b	.L39
.L41:
	.loc 1 198 25 discriminator 2
	ldr	r3, [r7, #28]
	adds	r3, r3, #1
	str	r3, [r7, #28]
.L40:
	.loc 1 198 19 discriminator 1
	ldr	r3, [r7, #28]
	cmp	r3, #18
	ble	.L42
.LBE3:
.LBB4:
	.loc 1 203 13
	movs	r3, #20
	str	r3, [r7, #24]
	.loc 1 203 5
	b	.L43
.L45:
	.loc 1 205 19
	ldr	r3, [r7, #24]
	lsls	r3, r3, #1
	ldr	r2, [r7, #4]
	add	r3, r3, r2
	ldrh	r3, [r3]
	.loc 1 205 11
	movw	r2, #32767
	cmp	r3, r2
	bne	.L44
	.loc 1 205 41 discriminator 1
	mvn	r3, #7
	b	.L39
.L44:
	.loc 1 203 26 discriminator 2
	ldr	r3, [r7, #24]
	adds	r3, r3, #1
	str	r3, [r7, #24]
.L43:
	.loc 1 203 20 discriminator 1
	ldr	r3, [r7, #24]
	cmp	r3, #22
	ble	.L45
.LBE4:
.LBB5:
	.loc 1 208 13
	movs	r3, #24
	str	r3, [r7, #20]
	.loc 1 208 5
	b	.L46
.L48:
	.loc 1 210 19
	ldr	r3, [r7, #20]
	lsls	r3, r3, #1
	ldr	r2, [r7, #4]
	add	r3, r3, r2
	ldrh	r3, [r3]
	.loc 1 210 11
	movw	r2, #32767
	cmp	r3, r2
	bne	.L47
	.loc 1 210 41 discriminator 1
	mvn	r3, #7
	b	.L39
.L47:
	.loc 1 208 26 discriminator 2
	ldr	r3, [r7, #20]
	adds	r3, r3, #1
	str	r3, [r7, #20]
.L46:
	.loc 1 208 20 discriminator 1
	ldr	r3, [r7, #20]
	cmp	r3, #32
	ble	.L48
.LBE5:
.LBB6:
	.loc 1 213 13
	movs	r3, #40
	str	r3, [r7, #16]
	.loc 1 213 5
	b	.L49
.L51:
	.loc 1 215 19
	ldr	r3, [r7, #16]
	lsls	r3, r3, #1
	ldr	r2, [r7, #4]
	add	r3, r3, r2
	ldrh	r3, [r3]
	.loc 1 215 11
	movw	r2, #32767
	cmp	r3, r2
	bne	.L50
	.loc 1 215 41 discriminator 1
	mvn	r3, #7
	b	.L39
.L50:
	.loc 1 213 26 discriminator 2
	ldr	r3, [r7, #16]
	adds	r3, r3, #1
	str	r3, [r7, #16]
.L49:
	.loc 1 213 20 discriminator 1
	ldr	r3, [r7, #16]
	cmp	r3, #50
	ble	.L51
.LBE6:
.LBB7:
	.loc 1 218 13
	movs	r3, #52
	str	r3, [r7, #12]
	.loc 1 218 5
	b	.L52
.L54:
	.loc 1 220 19
	ldr	r3, [r7, #12]
	lsls	r3, r3, #1
	ldr	r2, [r7, #4]
	add	r3, r3, r2
	ldrh	r3, [r3]
	.loc 1 220 11
	movw	r2, #32767
	cmp	r3, r2
	bne	.L53
	.loc 1 220 41 discriminator 1
	mvn	r3, #7
	b	.L39
.L53:
	.loc 1 218 26 discriminator 2
	ldr	r3, [r7, #12]
	adds	r3, r3, #1
	str	r3, [r7, #12]
.L52:
	.loc 1 218 20 discriminator 1
	ldr	r3, [r7, #12]
	cmp	r3, #54
	ble	.L54
.LBE7:
.LBB8:
	.loc 1 223 13
	movs	r3, #56
	str	r3, [r7, #8]
	.loc 1 223 5
	b	.L55
.L57:
	.loc 1 225 19
	ldr	r3, [r7, #8]
	lsls	r3, r3, #1
	ldr	r2, [r7, #4]
	add	r3, r3, r2
	ldrh	r3, [r3]
	.loc 1 225 11
	movw	r2, #32767
	cmp	r3, r2
	bne	.L56
	.loc 1 225 41 discriminator 1
	mvn	r3, #7
	b	.L39
.L56:
	.loc 1 223 26 discriminator 2
	ldr	r3, [r7, #8]
	adds	r3, r3, #1
	str	r3, [r7, #8]
.L55:
	.loc 1 223 20 discriminator 1
	ldr	r3, [r7, #8]
	cmp	r3, #63
	ble	.L57
.LBE8:
	.loc 1 228 12
	movs	r3, #0
.L39:
	.loc 1 230 1
	mov	r0, r3
	adds	r7, r7, #36
	.cfi_def_cfa_offset 4
	mov	sp, r7
	.cfi_def_cfa_register 13
	@ sp needed
	ldr	r7, [sp], #4
	.cfi_restore 7
	.cfi_def_cfa_offset 0
	bx	lr
	.cfi_endproc
.LFE5:
	.size	ValidateAuxData, .-ValidateAuxData
	.section	.text.MLX90640_ExtractParameters,"ax",%progbits
	.align	1
	.global	MLX90640_ExtractParameters
	.syntax unified
	.thumb
	.thumb_func
	.type	MLX90640_ExtractParameters, %function
MLX90640_ExtractParameters:
.LFB6:
	.loc 1 233 1
	.cfi_startproc
	@ args = 0, pretend = 0, frame = 16
	@ frame_needed = 1, uses_anonymous_args = 0
	push	{r7, lr}
	.cfi_def_cfa_offset 8
	.cfi_offset 7, -8
	.cfi_offset 14, -4
	sub	sp, sp, #16
	.cfi_def_cfa_offset 24
	add	r7, sp, #0
	.cfi_def_cfa_register 7
	str	r0, [r7, #4]
	str	r1, [r7]
	.loc 1 234 9
	movs	r3, #0
	str	r3, [r7, #12]
	.loc 1 236 5
	ldr	r1, [r7]
	ldr	r0, [r7, #4]
	bl	ExtractVDDParameters
	.loc 1 237 5
	ldr	r1, [r7]
	ldr	r0, [r7, #4]
	bl	ExtractPTATParameters
	.loc 1 238 5
	ldr	r1, [r7]
	ldr	r0, [r7, #4]
	bl	ExtractGainParameters
	.loc 1 239 5
	ldr	r1, [r7]
	ldr	r0, [r7, #4]
	bl	ExtractTgcParameters
	.loc 1 240 5
	ldr	r1, [r7]
	ldr	r0, [r7, #4]
	bl	ExtractResolutionParameters
	.loc 1 241 5
	ldr	r1, [r7]
	ldr	r0, [r7, #4]
	bl	ExtractKsTaParameters
	.loc 1 242 5
	ldr	r1, [r7]
	ldr	r0, [r7, #4]
	bl	ExtractKsToParameters
	.loc 1 243 5
	ldr	r1, [r7]
	ldr	r0, [r7, #4]
	bl	ExtractCPParameters
	.loc 1 244 5
	ldr	r1, [r7]
	ldr	r0, [r7, #4]
	bl	ExtractAlphaParameters
	.loc 1 245 5
	ldr	r1, [r7]
	ldr	r0, [r7, #4]
	bl	ExtractOffsetParameters
	.loc 1 246 5
	ldr	r1, [r7]
	ldr	r0, [r7, #4]
	bl	ExtractKtaPixelParameters
	.loc 1 247 5
	ldr	r1, [r7]
	ldr	r0, [r7, #4]
	bl	ExtractKvPixelParameters
	.loc 1 248 5
	ldr	r1, [r7]
	ldr	r0, [r7, #4]
	bl	ExtractCILCParameters
	.loc 1 249 13
	ldr	r1, [r7]
	ldr	r0, [r7, #4]
	bl	ExtractDeviatingPixels
	str	r0, [r7, #12]
	.loc 1 251 12
	ldr	r3, [r7, #12]
	.loc 1 253 1
	mov	r0, r3
	adds	r7, r7, #16
	.cfi_def_cfa_offset 8
	mov	sp, r7
	.cfi_def_cfa_register 13
	@ sp needed
	pop	{r7, pc}
	.cfi_endproc
.LFE6:
	.size	MLX90640_ExtractParameters, .-MLX90640_ExtractParameters
	.section	.text.MLX90640_SetResolution,"ax",%progbits
	.align	1
	.global	MLX90640_SetResolution
	.syntax unified
	.thumb
	.thumb_func
	.type	MLX90640_SetResolution, %function
MLX90640_SetResolution:
.LFB7:
	.loc 1 258 1
	.cfi_startproc
	@ args = 0, pretend = 0, frame = 16
	@ frame_needed = 1, uses_anonymous_args = 0
	push	{r7, lr}
	.cfi_def_cfa_offset 8
	.cfi_offset 7, -8
	.cfi_offset 14, -4
	sub	sp, sp, #16
	.cfi_def_cfa_offset 24
	add	r7, sp, #0
	.cfi_def_cfa_register 7
	mov	r3, r0
	mov	r2, r1
	strb	r3, [r7, #7]
	mov	r3, r2
	strb	r3, [r7, #6]
	.loc 1 264 35
	ldrb	r3, [r7, #6]	@ zero_extendqisi2
	uxth	r3, r3
	.loc 1 264 11
	lsls	r3, r3, #10
	strh	r3, [r7, #10]	@ movhi
	.loc 1 265 11
	ldrh	r3, [r7, #10]	@ movhi
	and	r3, r3, #3072
	strh	r3, [r7, #10]	@ movhi
	.loc 1 267 13
	add	r3, r7, #8
	ldrb	r0, [r7, #7]	@ zero_extendqisi2
	movs	r2, #1
	movw	r1, #32781
	bl	MLX90640_I2CRead
	str	r0, [r7, #12]
	.loc 1 269 7
	ldr	r3, [r7, #12]
	cmp	r3, #0
	bne	.L61
	.loc 1 271 35
	ldrh	r3, [r7, #8]
	bic	r3, r3, #3072
	uxth	r2, r3
	.loc 1 271 15
	ldrh	r3, [r7, #10]	@ movhi
	orrs	r3, r3, r2
	strh	r3, [r7, #10]	@ movhi
	.loc 1 272 17
	ldrh	r2, [r7, #10]
	ldrb	r3, [r7, #7]	@ zero_extendqisi2
	movw	r1, #32781
	mov	r0, r3
	bl	MLX90640_I2CWrite
	str	r0, [r7, #12]
.L61:
	.loc 1 275 12
	ldr	r3, [r7, #12]
	.loc 1 276 1
	mov	r0, r3
	adds	r7, r7, #16
	.cfi_def_cfa_offset 8
	mov	sp, r7
	.cfi_def_cfa_register 13
	@ sp needed
	pop	{r7, pc}
	.cfi_endproc
.LFE7:
	.size	MLX90640_SetResolution, .-MLX90640_SetResolution
	.section	.text.MLX90640_GetCurResolution,"ax",%progbits
	.align	1
	.global	MLX90640_GetCurResolution
	.syntax unified
	.thumb
	.thumb_func
	.type	MLX90640_GetCurResolution, %function
MLX90640_GetCurResolution:
.LFB8:
	.loc 1 281 1
	.cfi_startproc
	@ args = 0, pretend = 0, frame = 24
	@ frame_needed = 1, uses_anonymous_args = 0
	push	{r7, lr}
	.cfi_def_cfa_offset 8
	.cfi_offset 7, -8
	.cfi_offset 14, -4
	sub	sp, sp, #24
	.cfi_def_cfa_offset 32
	add	r7, sp, #0
	.cfi_def_cfa_register 7
	mov	r3, r0
	strb	r3, [r7, #7]
	.loc 1 286 13
	add	r3, r7, #14
	ldrb	r0, [r7, #7]	@ zero_extendqisi2
	movs	r2, #1
	movw	r1, #32781
	bl	MLX90640_I2CRead
	str	r0, [r7, #20]
	.loc 1 287 7
	ldr	r3, [r7, #20]
	cmp	r3, #0
	beq	.L64
	.loc 1 289 16
	ldr	r3, [r7, #20]
	b	.L66
.L64:
	.loc 1 291 71
	ldrh	r3, [r7, #14]
	lsrs	r3, r3, #10
	.loc 1 291 19
	and	r3, r3, #3
	str	r3, [r7, #16]
	.loc 1 293 12
	ldr	r3, [r7, #16]
.L66:
	.loc 1 294 1 discriminator 1
	mov	r0, r3
	adds	r7, r7, #24
	.cfi_def_cfa_offset 8
	mov	sp, r7
	.cfi_def_cfa_register 13
	@ sp needed
	pop	{r7, pc}
	.cfi_endproc
.LFE8:
	.size	MLX90640_GetCurResolution, .-MLX90640_GetCurResolution
	.section	.text.MLX90640_SetRefreshRate,"ax",%progbits
	.align	1
	.global	MLX90640_SetRefreshRate
	.syntax unified
	.thumb
	.thumb_func
	.type	MLX90640_SetRefreshRate, %function
MLX90640_SetRefreshRate:
.LFB9:
	.loc 1 299 1
	.cfi_startproc
	@ args = 0, pretend = 0, frame = 16
	@ frame_needed = 1, uses_anonymous_args = 0
	push	{r7, lr}
	.cfi_def_cfa_offset 8
	.cfi_offset 7, -8
	.cfi_offset 14, -4
	sub	sp, sp, #16
	.cfi_def_cfa_offset 24
	add	r7, sp, #0
	.cfi_def_cfa_register 7
	mov	r3, r0
	mov	r2, r1
	strb	r3, [r7, #7]
	mov	r3, r2
	strb	r3, [r7, #6]
	.loc 1 305 36
	ldrb	r3, [r7, #6]	@ zero_extendqisi2
	uxth	r3, r3
	.loc 1 305 11
	lsls	r3, r3, #7
	strh	r3, [r7, #10]	@ movhi
	.loc 1 306 11
	ldrh	r3, [r7, #10]	@ movhi
	and	r3, r3, #896
	strh	r3, [r7, #10]	@ movhi
	.loc 1 308 13
	add	r3, r7, #8
	ldrb	r0, [r7, #7]	@ zero_extendqisi2
	movs	r2, #1
	movw	r1, #32781
	bl	MLX90640_I2CRead
	str	r0, [r7, #12]
	.loc 1 309 7
	ldr	r3, [r7, #12]
	cmp	r3, #0
	bne	.L68
	.loc 1 311 35
	ldrh	r3, [r7, #8]
	bic	r3, r3, #896
	uxth	r2, r3
	.loc 1 311 15
	ldrh	r3, [r7, #10]	@ movhi
	orrs	r3, r3, r2
	strh	r3, [r7, #10]	@ movhi
	.loc 1 312 17
	ldrh	r2, [r7, #10]
	ldrb	r3, [r7, #7]	@ zero_extendqisi2
	movw	r1, #32781
	mov	r0, r3
	bl	MLX90640_I2CWrite
	str	r0, [r7, #12]
.L68:
	.loc 1 315 12
	ldr	r3, [r7, #12]
	.loc 1 316 1
	mov	r0, r3
	adds	r7, r7, #16
	.cfi_def_cfa_offset 8
	mov	sp, r7
	.cfi_def_cfa_register 13
	@ sp needed
	pop	{r7, pc}
	.cfi_endproc
.LFE9:
	.size	MLX90640_SetRefreshRate, .-MLX90640_SetRefreshRate
	.section	.text.MLX90640_GetRefreshRate,"ax",%progbits
	.align	1
	.global	MLX90640_GetRefreshRate
	.syntax unified
	.thumb
	.thumb_func
	.type	MLX90640_GetRefreshRate, %function
MLX90640_GetRefreshRate:
.LFB10:
	.loc 1 321 1
	.cfi_startproc
	@ args = 0, pretend = 0, frame = 24
	@ frame_needed = 1, uses_anonymous_args = 0
	push	{r7, lr}
	.cfi_def_cfa_offset 8
	.cfi_offset 7, -8
	.cfi_offset 14, -4
	sub	sp, sp, #24
	.cfi_def_cfa_offset 32
	add	r7, sp, #0
	.cfi_def_cfa_register 7
	mov	r3, r0
	strb	r3, [r7, #7]
	.loc 1 326 13
	add	r3, r7, #14
	ldrb	r0, [r7, #7]	@ zero_extendqisi2
	movs	r2, #1
	movw	r1, #32781
	bl	MLX90640_I2CRead
	str	r0, [r7, #20]
	.loc 1 327 7
	ldr	r3, [r7, #20]
	cmp	r3, #0
	beq	.L71
	.loc 1 329 16
	ldr	r3, [r7, #20]
	b	.L73
.L71:
	.loc 1 331 68
	ldrh	r3, [r7, #14]
	lsrs	r3, r3, #7
	.loc 1 331 17
	and	r3, r3, #7
	str	r3, [r7, #16]
	.loc 1 333 12
	ldr	r3, [r7, #16]
.L73:
	.loc 1 334 1 discriminator 1
	mov	r0, r3
	adds	r7, r7, #24
	.cfi_def_cfa_offset 8
	mov	sp, r7
	.cfi_def_cfa_register 13
	@ sp needed
	pop	{r7, pc}
	.cfi_endproc
.LFE10:
	.size	MLX90640_GetRefreshRate, .-MLX90640_GetRefreshRate
	.section	.text.MLX90640_SetInterleavedMode,"ax",%progbits
	.align	1
	.global	MLX90640_SetInterleavedMode
	.syntax unified
	.thumb
	.thumb_func
	.type	MLX90640_SetInterleavedMode, %function
MLX90640_SetInterleavedMode:
.LFB11:
	.loc 1 339 1
	.cfi_startproc
	@ args = 0, pretend = 0, frame = 16
	@ frame_needed = 1, uses_anonymous_args = 0
	push	{r7, lr}
	.cfi_def_cfa_offset 8
	.cfi_offset 7, -8
	.cfi_offset 14, -4
	sub	sp, sp, #16
	.cfi_def_cfa_offset 24
	add	r7, sp, #0
	.cfi_def_cfa_register 7
	mov	r3, r0
	strb	r3, [r7, #7]
	.loc 1 344 13
	add	r3, r7, #8
	ldrb	r0, [r7, #7]	@ zero_extendqisi2
	movs	r2, #1
	movw	r1, #32781
	bl	MLX90640_I2CRead
	str	r0, [r7, #12]
	.loc 1 346 7
	ldr	r3, [r7, #12]
	cmp	r3, #0
	bne	.L75
	.loc 1 348 35
	ldrh	r3, [r7, #8]
	.loc 1 348 15
	bic	r3, r3, #4096
	strh	r3, [r7, #10]	@ movhi
	.loc 1 349 17
	ldrh	r2, [r7, #10]
	ldrb	r3, [r7, #7]	@ zero_extendqisi2
	movw	r1, #32781
	mov	r0, r3
	bl	MLX90640_I2CWrite
	str	r0, [r7, #12]
.L75:
	.loc 1 352 12
	ldr	r3, [r7, #12]
	.loc 1 353 1
	mov	r0, r3
	adds	r7, r7, #16
	.cfi_def_cfa_offset 8
	mov	sp, r7
	.cfi_def_cfa_register 13
	@ sp needed
	pop	{r7, pc}
	.cfi_endproc
.LFE11:
	.size	MLX90640_SetInterleavedMode, .-MLX90640_SetInterleavedMode
	.section	.text.MLX90640_SetChessMode,"ax",%progbits
	.align	1
	.global	MLX90640_SetChessMode
	.syntax unified
	.thumb
	.thumb_func
	.type	MLX90640_SetChessMode, %function
MLX90640_SetChessMode:
.LFB12:
	.loc 1 358 1
	.cfi_startproc
	@ args = 0, pretend = 0, frame = 16
	@ frame_needed = 1, uses_anonymous_args = 0
	push	{r7, lr}
	.cfi_def_cfa_offset 8
	.cfi_offset 7, -8
	.cfi_offset 14, -4
	sub	sp, sp, #16
	.cfi_def_cfa_offset 24
	add	r7, sp, #0
	.cfi_def_cfa_register 7
	mov	r3, r0
	strb	r3, [r7, #7]
	.loc 1 363 13
	add	r3, r7, #8
	ldrb	r0, [r7, #7]	@ zero_extendqisi2
	movs	r2, #1
	movw	r1, #32781
	bl	MLX90640_I2CRead
	str	r0, [r7, #12]
	.loc 1 365 7
	ldr	r3, [r7, #12]
	cmp	r3, #0
	bne	.L78
	.loc 1 367 15
	ldrh	r3, [r7, #8]
	orr	r3, r3, #4096
	strh	r3, [r7, #10]	@ movhi
	.loc 1 368 17
	ldrh	r2, [r7, #10]
	ldrb	r3, [r7, #7]	@ zero_extendqisi2
	movw	r1, #32781
	mov	r0, r3
	bl	MLX90640_I2CWrite
	str	r0, [r7, #12]
.L78:
	.loc 1 371 12
	ldr	r3, [r7, #12]
	.loc 1 372 1
	mov	r0, r3
	adds	r7, r7, #16
	.cfi_def_cfa_offset 8
	mov	sp, r7
	.cfi_def_cfa_register 13
	@ sp needed
	pop	{r7, pc}
	.cfi_endproc
.LFE12:
	.size	MLX90640_SetChessMode, .-MLX90640_SetChessMode
	.section	.text.MLX90640_GetCurMode,"ax",%progbits
	.align	1
	.global	MLX90640_GetCurMode
	.syntax unified
	.thumb
	.thumb_func
	.type	MLX90640_GetCurMode, %function
MLX90640_GetCurMode:
.LFB13:
	.loc 1 377 1
	.cfi_startproc
	@ args = 0, pretend = 0, frame = 24
	@ frame_needed = 1, uses_anonymous_args = 0
	push	{r7, lr}
	.cfi_def_cfa_offset 8
	.cfi_offset 7, -8
	.cfi_offset 14, -4
	sub	sp, sp, #24
	.cfi_def_cfa_offset 32
	add	r7, sp, #0
	.cfi_def_cfa_register 7
	mov	r3, r0
	strb	r3, [r7, #7]
	.loc 1 382 13
	add	r3, r7, #14
	ldrb	r0, [r7, #7]	@ zero_extendqisi2
	movs	r2, #1
	movw	r1, #32781
	bl	MLX90640_I2CRead
	str	r0, [r7, #20]
	.loc 1 383 7
	ldr	r3, [r7, #20]
	cmp	r3, #0
	beq	.L81
	.loc 1 385 16
	ldr	r3, [r7, #20]
	b	.L83
.L81:
	.loc 1 387 50
	ldrh	r3, [r7, #14]
	lsrs	r3, r3, #12
	.loc 1 387 13
	and	r3, r3, #1
	str	r3, [r7, #16]
	.loc 1 389 12
	ldr	r3, [r7, #16]
.L83:
	.loc 1 390 1 discriminator 1
	mov	r0, r3
	adds	r7, r7, #24
	.cfi_def_cfa_offset 8
	mov	sp, r7
	.cfi_def_cfa_register 13
	@ sp needed
	pop	{r7, pc}
	.cfi_endproc
.LFE13:
	.size	MLX90640_GetCurMode, .-MLX90640_GetCurMode
	.global	__aeabi_f2d
	.global	__aeabi_dadd
	.global	__aeabi_d2f
	.global	__aeabi_ui2d
	.global	__aeabi_dsub
	.global	__aeabi_dmul
	.global	__aeabi_i2d
	.global	__aeabi_ddiv
	.section	.text.MLX90640_CalculateTo,"ax",%progbits
	.align	1
	.global	MLX90640_CalculateTo
	.syntax unified
	.thumb
	.thumb_func
	.type	MLX90640_CalculateTo, %function
MLX90640_CalculateTo:
.LFB14:
	.loc 1 395 1
	.cfi_startproc
	@ args = 0, pretend = 0, frame = 128
	@ frame_needed = 1, uses_anonymous_args = 0
	push	{r4, r5, r7, r8, r9, r10, fp, lr}
	.cfi_def_cfa_offset 32
	.cfi_offset 4, -32
	.cfi_offset 5, -28
	.cfi_offset 7, -24
	.cfi_offset 8, -20
	.cfi_offset 9, -16
	.cfi_offset 10, -12
	.cfi_offset 11, -8
	.cfi_offset 14, -4
	sub	sp, sp, #128
	.cfi_def_cfa_offset 160
	add	r7, sp, #0
	.cfi_def_cfa_register 7
	str	r0, [r7, #20]
	str	r1, [r7, #16]
	vstr.32	s0, [r7, #12]
	vstr.32	s1, [r7, #8]
	str	r2, [r7, #4]
	.loc 1 421 13
	ldr	r3, [r7, #20]
	ldrh	r3, [r3, #1666]	@ movhi
	strh	r3, [r7, #114]	@ movhi
	.loc 1 422 11
	ldr	r1, [r7, #16]
	ldr	r0, [r7, #20]
	bl	MLX90640_GetVdd
	vstr.32	s0, [r7, #108]
	.loc 1 423 10
	ldr	r1, [r7, #16]
	ldr	r0, [r7, #20]
	bl	MLX90640_GetTa
	vstr.32	s0, [r7, #104]
	.loc 1 425 15
	ldr	r0, [r7, #104]	@ float
	bl	__aeabi_f2d
	adr	r3, .L112+24
	ldrd	r2, [r3]
	bl	__aeabi_dadd
	mov	r2, r0
	mov	r3, r1
	.loc 1 425 9
	mov	r0, r2
	mov	r1, r3
	bl	__aeabi_d2f
	mov	r3, r0	@ float
	str	r3, [r7, #100]	@ float
	.loc 1 426 9
	vldr.32	s15, [r7, #100]
	vmul.f32	s15, s15, s15
	vstr.32	s15, [r7, #100]
	.loc 1 427 9
	vldr.32	s15, [r7, #100]
	vmul.f32	s15, s15, s15
	vstr.32	s15, [r7, #100]
	.loc 1 428 15
	ldr	r0, [r7, #8]	@ float
	bl	__aeabi_f2d
	adr	r3, .L112+24
	ldrd	r2, [r3]
	bl	__aeabi_dadd
	mov	r2, r0
	mov	r3, r1
	.loc 1 428 9
	mov	r0, r2
	mov	r1, r3
	bl	__aeabi_d2f
	mov	r3, r0	@ float
	str	r3, [r7, #96]	@ float
	.loc 1 429 9
	vldr.32	s15, [r7, #96]
	vmul.f32	s15, s15, s15
	vstr.32	s15, [r7, #96]
	.loc 1 430 9
	vldr.32	s15, [r7, #96]
	vmul.f32	s15, s15, s15
	vstr.32	s15, [r7, #96]
	.loc 1 431 22
	vldr.32	s14, [r7, #96]
	vldr.32	s15, [r7, #100]
	vsub.f32	s13, s14, s15
	.loc 1 431 27
	vldr.32	s14, [r7, #12]
	vdiv.f32	s15, s13, s14
	.loc 1 431 10
	vldr.32	s14, [r7, #96]
	vsub.f32	s15, s14, s15
	vstr.32	s15, [r7, #92]
	.loc 1 433 37
	ldr	r3, [r7, #16]
	ldrb	r3, [r3, #3916]	@ zero_extendqisi2
	.loc 1 433 16
	mov	r0, r3
	bl	__aeabi_ui2d
	mov	r2, r0
	mov	r3, r1
	vmov	d1, r2, r3
	vldr.64	d0, .L112
	bl	pow
	vmov	r2, r3, d0
	.loc 1 433 14
	mov	r0, r2
	mov	r1, r3
	bl	__aeabi_d2f
	mov	r3, r0	@ float
	str	r3, [r7, #88]	@ float
	.loc 1 434 36
	ldr	r3, [r7, #16]
	add	r3, r3, #4096
	ldrb	r3, [r3, #589]	@ zero_extendqisi2
	.loc 1 434 15
	mov	r0, r3
	bl	__aeabi_ui2d
	mov	r2, r0
	mov	r3, r1
	vmov	d1, r2, r3
	vldr.64	d0, .L112
	bl	pow
	vmov	r2, r3, d0
	.loc 1 434 13
	mov	r0, r2
	mov	r1, r3
	bl	__aeabi_d2f
	mov	r3, r0	@ float
	str	r3, [r7, #84]	@ float
	.loc 1 435 39
	ldr	r3, [r7, #16]
	ldrb	r3, [r3, #1610]	@ zero_extendqisi2
	.loc 1 435 18
	mov	r0, r3
	bl	__aeabi_ui2d
	mov	r2, r0
	mov	r3, r1
	vmov	d1, r2, r3
	vldr.64	d0, .L112
	bl	pow
	vmov	r2, r3, d0
	.loc 1 435 16
	mov	r0, r2
	mov	r1, r3
	bl	__aeabi_d2f
	mov	r3, r0	@ float
	str	r3, [r7, #80]	@ float
	.loc 1 437 42
	ldr	r3, [r7, #16]
	vldr.32	s15, [r3, #44]
	.loc 1 437 46
	vldr.32	s14, .L112+16
	vmul.f32	s15, s15, s14
	.loc 1 437 28
	vmov.f32	s14, #1.0e+0
	vadd.f32	s14, s15, s14
	.loc 1 437 23
	vmov.f32	s13, #1.0e+0
	vdiv.f32	s15, s13, s14
	.loc 1 437 19
	vstr.32	s15, [r7, #28]
	.loc 1 438 19
	mov	r3, #1065353216
	str	r3, [r7, #32]	@ float
	.loc 1 439 38
	ldr	r3, [r7, #16]
	vldr.32	s14, [r3, #48]
	.loc 1 439 54
	ldr	r3, [r7, #16]
	ldrsh	r3, [r3, #68]
	.loc 1 439 42
	vmov	s15, r3	@ int
	vcvt.f32.s32	s15, s15
	vmul.f32	s15, s14, s15
	.loc 1 439 24
	vmov.f32	s14, #1.0e+0
	vadd.f32	s15, s15, s14
	.loc 1 439 19
	vstr.32	s15, [r7, #36]
	.loc 1 440 31
	vldr.32	s14, [r7, #36]
	.loc 1 440 54
	ldr	r3, [r7, #16]
	vldr.32	s13, [r3, #52]
	.loc 1 440 71
	ldr	r3, [r7, #16]
	ldrsh	r3, [r3, #70]
	mov	r2, r3
	.loc 1 440 87
	ldr	r3, [r7, #16]
	ldrsh	r3, [r3, #68]
	.loc 1 440 75
	subs	r3, r2, r3
	.loc 1 440 58
	vmov	s15, r3	@ int
	vcvt.f32.s32	s15, s15
	vmul.f32	s15, s13, s15
	.loc 1 440 40
	vmov.f32	s13, #1.0e+0
	vadd.f32	s15, s15, s13
	.loc 1 440 35
	vmul.f32	s15, s14, s15
	.loc 1 440 19
	vstr.32	s15, [r7, #40]
	.loc 1 444 25
	ldr	r3, [r7, #16]
	ldrsh	r3, [r3, #20]
	.loc 1 444 12
	vmov	s15, r3	@ int
	vcvt.f32.s32	s13, s15
	.loc 1 444 54
	ldr	r3, [r7, #20]
	addw	r3, r3, #1556
	ldrh	r3, [r3]
	.loc 1 444 36
	sxth	r3, r3
	.loc 1 444 34
	vmov	s15, r3	@ int
	vcvt.f32.s32	s14, s15
	.loc 1 444 10
	vdiv.f32	s15, s13, s14
	vstr.32	s15, [r7, #76]
	.loc 1 447 22
	ldr	r3, [r7, #20]
	add	r3, r3, #1664
	ldrh	r3, [r3]
	.loc 1 447 45
	lsrs	r3, r3, #5
	uxtb	r3, r3
	.loc 1 447 10
	bic	r3, r3, #127
	strb	r3, [r7, #75]
	.loc 1 449 37
	ldr	r3, [r7, #20]
	add	r3, r3, #1552
	ldrh	r3, [r3]
	.loc 1 449 19
	sxth	r3, r3
	.loc 1 449 43
	vmov	s15, r3	@ int
	vcvt.f32.s32	s14, s15
	vldr.32	s15, [r7, #76]
	vmul.f32	s15, s14, s15
	.loc 1 449 17
	vstr.32	s15, [r7, #44]
	.loc 1 450 37
	ldr	r3, [r7, #20]
	add	r3, r3, #1616
	ldrh	r3, [r3]
	.loc 1 450 19
	sxth	r3, r3
	.loc 1 450 43
	vmov	s15, r3	@ int
	vcvt.f32.s32	s14, s15
	vldr.32	s15, [r7, #76]
	vmul.f32	s15, s14, s15
	.loc 1 450 17
	vstr.32	s15, [r7, #48]
	.loc 1 452 27
	ldr	r3, [r7, #44]	@ float
	mov	r0, r3	@ float
	bl	__aeabi_f2d
	mov	r4, r0
	mov	r5, r1
	.loc 1 452 49
	ldr	r3, [r7, #16]
	add	r3, r3, #4096
	ldrsh	r3, [r3, #600]
	.loc 1 452 53
	vmov	s15, r3	@ int
	vcvt.f32.s32	s14, s15
	.loc 1 452 66
	ldr	r3, [r7, #16]
	vldr.32	s13, [r3, #32]
	.loc 1 452 80
	vldr.32	s15, [r7, #104]
	vmov.f32	s12, #2.5e+1
	vsub.f32	s15, s15, s12
	.loc 1 452 74
	vmul.f32	s15, s13, s15
	.loc 1 452 58
	vmov.f32	s13, #1.0e+0
	vadd.f32	s15, s15, s13
	.loc 1 452 53
	vmul.f32	s15, s14, s15
	vmov	r0, s15
	bl	__aeabi_f2d
	mov	r8, r0
	mov	r9, r1
	.loc 1 452 100
	ldr	r3, [r7, #16]
	ldr	r3, [r3, #28]	@ float
	mov	r0, r3	@ float
	bl	__aeabi_f2d
	mov	r10, r0
	mov	fp, r1
	.loc 1 452 114
	ldr	r0, [r7, #108]	@ float
	bl	__aeabi_f2d
	adr	r3, .L112+8
	ldrd	r2, [r3]
	bl	__aeabi_dsub
	mov	r2, r0
	mov	r3, r1
	.loc 1 452 107
	mov	r0, r10
	mov	r1, fp
	bl	__aeabi_dmul
	mov	r2, r0
	mov	r3, r1
	mov	r0, r2
	mov	r1, r3
	.loc 1 452 92
	mov	r2, #0
	ldr	r3, .L112+20
	bl	__aeabi_dadd
	mov	r2, r0
	mov	r3, r1
	.loc 1 452 87
	mov	r0, r8
	mov	r1, r9
	bl	__aeabi_dmul
	mov	r2, r0
	mov	r3, r1
	.loc 1 452 31
	mov	r0, r4
	mov	r1, r5
	bl	__aeabi_dsub
	mov	r2, r0
	mov	r3, r1
	mov	r0, r2
	mov	r1, r3
	bl	__aeabi_d2f
	mov	r3, r0	@ float
	.loc 1 452 17
	str	r3, [r7, #44]	@ float
	.loc 1 453 23
	ldr	r3, [r7, #16]
	ldrb	r3, [r3, #37]	@ zero_extendqisi2
	.loc 1 453 7
	ldrb	r2, [r7, #75]	@ zero_extendqisi2
	cmp	r2, r3
	bne	.L85
	.loc 1 455 31
	ldr	r3, [r7, #48]	@ float
	mov	r0, r3	@ float
	bl	__aeabi_f2d
	mov	r4, r0
	mov	r5, r1
	.loc 1 455 53
	ldr	r3, [r7, #16]
	add	r3, r3, #4096
	ldrsh	r3, [r3, #602]
	.loc 1 455 57
	vmov	s15, r3	@ int
	vcvt.f32.s32	s14, s15
	.loc 1 455 70
	ldr	r3, [r7, #16]
	vldr.32	s13, [r3, #32]
	.loc 1 455 84
	vldr.32	s15, [r7, #104]
	vmov.f32	s12, #2.5e+1
	vsub.f32	s15, s15, s12
	.loc 1 455 78
	vmul.f32	s15, s13, s15
	.loc 1 455 62
	vmov.f32	s13, #1.0e+0
	vadd.f32	s15, s15, s13
	.loc 1 455 57
	vmul.f32	s15, s14, s15
	vmov	r0, s15
	bl	__aeabi_f2d
	mov	r8, r0
	mov	r9, r1
	.loc 1 455 104
	ldr	r3, [r7, #16]
	ldr	r3, [r3, #28]	@ float
	mov	r0, r3	@ float
	bl	__aeabi_f2d
	mov	r10, r0
	mov	fp, r1
	.loc 1 455 118
	ldr	r0, [r7, #108]	@ float
	bl	__aeabi_f2d
	adr	r3, .L112+8
	ldrd	r2, [r3]
	bl	__aeabi_dsub
	mov	r2, r0
	mov	r3, r1
	.loc 1 455 111
	mov	r0, r10
	mov	r1, fp
	bl	__aeabi_dmul
	mov	r2, r0
	mov	r3, r1
	mov	r0, r2
	mov	r1, r3
	.loc 1 455 96
	mov	r2, #0
	ldr	r3, .L112+20
	bl	__aeabi_dadd
	mov	r2, r0
	mov	r3, r1
	.loc 1 455 91
	mov	r0, r8
	mov	r1, r9
	bl	__aeabi_dmul
	mov	r2, r0
	mov	r3, r1
	.loc 1 455 35
	mov	r0, r4
	mov	r1, r5
	bl	__aeabi_dsub
	mov	r2, r0
	mov	r3, r1
	mov	r0, r2
	mov	r1, r3
	bl	__aeabi_d2f
	mov	r3, r0	@ float
	.loc 1 455 21
	str	r3, [r7, #48]	@ float
	b	.L86
.L113:
	.align	3
.L112:
	.word	0
	.word	1073741824
	.word	1717986918
	.word	1074423398
	.word	1109393408
	.word	1072693248
	.word	1717986918
	.word	1081152102
.L85:
	.loc 1 459 29
	ldr	r3, [r7, #48]	@ float
	mov	r0, r3	@ float
	bl	__aeabi_f2d
	mov	r4, r0
	mov	r5, r1
	.loc 1 459 52
	ldr	r3, [r7, #16]
	add	r3, r3, #4096
	ldrsh	r3, [r3, #602]
	.loc 1 459 56
	vmov	s15, r3	@ int
	vcvt.f32.s32	s14, s15
	.loc 1 459 74
	ldr	r3, [r7, #16]
	add	r3, r3, #4096
	vldr.32	s15, [r3, #604]
	.loc 1 459 56
	vadd.f32	s14, s14, s15
	.loc 1 459 92
	ldr	r3, [r7, #16]
	vldr.32	s13, [r3, #32]
	.loc 1 459 106
	vldr.32	s15, [r7, #104]
	vmov.f32	s12, #2.5e+1
	vsub.f32	s15, s15, s12
	.loc 1 459 100
	vmul.f32	s15, s13, s15
	.loc 1 459 84
	vmov.f32	s13, #1.0e+0
	vadd.f32	s15, s15, s13
	.loc 1 459 79
	vmul.f32	s15, s14, s15
	vmov	r0, s15
	bl	__aeabi_f2d
	mov	r8, r0
	mov	r9, r1
	.loc 1 459 126
	ldr	r3, [r7, #16]
	ldr	r3, [r3, #28]	@ float
	mov	r0, r3	@ float
	bl	__aeabi_f2d
	mov	r10, r0
	mov	fp, r1
	.loc 1 459 140
	ldr	r0, [r7, #108]	@ float
	bl	__aeabi_f2d
	adr	r3, .L114
	ldrd	r2, [r3]
	bl	__aeabi_dsub
	mov	r2, r0
	mov	r3, r1
	.loc 1 459 133
	mov	r0, r10
	mov	r1, fp
	bl	__aeabi_dmul
	mov	r2, r0
	mov	r3, r1
	mov	r0, r2
	mov	r1, r3
	.loc 1 459 118
	mov	r2, #0
	ldr	r3, .L114+8
	bl	__aeabi_dadd
	mov	r2, r0
	mov	r3, r1
	.loc 1 459 113
	mov	r0, r8
	mov	r1, r9
	bl	__aeabi_dmul
	mov	r2, r0
	mov	r3, r1
	.loc 1 459 33
	mov	r0, r4
	mov	r1, r5
	bl	__aeabi_dsub
	mov	r2, r0
	mov	r3, r1
	mov	r0, r2
	mov	r1, r3
	bl	__aeabi_d2f
	mov	r3, r0	@ float
	.loc 1 459 19
	str	r3, [r7, #48]	@ float
.L86:
.LBB9:
	.loc 1 462 14
	movs	r3, #0
	str	r3, [r7, #116]
	.loc 1 462 5
	b	.L87
.L105:
	.loc 1 464 33
	ldr	r3, [r7, #116]
	cmp	r3, #0
	bge	.L88
	adds	r3, r3, #31
.L88:
	asrs	r3, r3, #5
	.loc 1 464 38
	uxtb	r2, r3
	.loc 1 464 53
	ldr	r3, [r7, #116]
	cmp	r3, #0
	bge	.L89
	adds	r3, r3, #63
.L89:
	asrs	r3, r3, #6
	.loc 1 464 38
	uxtb	r3, r3
	lsls	r3, r3, #1
	uxtb	r3, r3
	subs	r3, r2, r3
	uxtb	r3, r3
	.loc 1 464 19
	strb	r3, [r7, #74]
	.loc 1 465 49
	ldr	r3, [r7, #116]
	cmp	r3, #0
	and	r3, r3, #1
	it	lt
	rsblt	r3, r3, #0
	.loc 1 465 34
	sxtb	r2, r3
	.loc 1 465 22
	ldrb	r3, [r7, #74]
	eors	r3, r3, r2
	strb	r3, [r7, #73]
	.loc 1 466 43
	ldr	r3, [r7, #116]
	adds	r3, r3, #2
	.loc 1 466 48
	cmp	r3, #0
	bge	.L90
	adds	r3, r3, #3
.L90:
	asrs	r3, r3, #2
	mov	r2, r3
	.loc 1 466 67
	ldr	r3, [r7, #116]
	adds	r3, r3, #3
	.loc 1 466 72
	cmp	r3, #0
	bge	.L91
	adds	r3, r3, #3
.L91:
	asrs	r3, r3, #2
	rsbs	r3, r3, #0
	.loc 1 466 52
	add	r2, r2, r3
	.loc 1 466 91
	ldr	r3, [r7, #116]
	adds	r3, r3, #1
	.loc 1 466 96
	cmp	r3, #0
	bge	.L92
	adds	r3, r3, #3
.L92:
	asrs	r3, r3, #2
	.loc 1 466 76
	add	r2, r2, r3
	.loc 1 466 114
	ldr	r3, [r7, #116]
	cmp	r3, #0
	bge	.L93
	adds	r3, r3, #3
.L93:
	asrs	r3, r3, #2
	rsbs	r3, r3, #0
	.loc 1 466 100
	add	r3, r3, r2
	.loc 1 466 27
	uxtb	r2, r3
	.loc 1 466 128
	ldrsb	r3, [r7, #74]
	lsls	r3, r3, #1
	.loc 1 466 124
	rsb	r3, r3, #1
	.loc 1 466 27
	uxtb	r3, r3
	smulbb	r3, r2, r3
	uxtb	r3, r3
	strb	r3, [r7, #72]
	.loc 1 468 11
	ldrb	r3, [r7, #75]	@ zero_extendqisi2
	cmp	r3, #0
	bne	.L94
	.loc 1 470 19
	ldrb	r3, [r7, #74]
	strb	r3, [r7, #123]
	b	.L95
.L115:
	.align	3
.L114:
	.word	1717986918
	.word	1074423398
	.word	1072693248
.L94:
	.loc 1 474 19
	ldrb	r3, [r7, #73]
	strb	r3, [r7, #123]
.L95:
	.loc 1 477 20
	ldrsb	r3, [r7, #123]
	.loc 1 477 32
	ldr	r2, [r7, #20]
	addw	r2, r2, #1666
	ldrh	r2, [r2]
	.loc 1 477 11
	cmp	r3, r2
	bne	.L96
	.loc 1 479 40
	ldr	r3, [r7, #116]
	lsls	r3, r3, #1
	ldr	r2, [r7, #20]
	add	r3, r3, r2
	ldrh	r3, [r3]
	.loc 1 479 22
	sxth	r3, r3
	.loc 1 479 54
	vmov	s15, r3	@ int
	vcvt.f32.s32	s15, s15
	.loc 1 479 20
	vldr.32	s14, [r7, #76]
	vmul.f32	s15, s14, s15
	vstr.32	s15, [r7, #124]
	.loc 1 481 30
	ldr	r2, [r7, #16]
	ldr	r3, [r7, #116]
	add	r3, r3, r2
	addw	r3, r3, #3148
	ldrsb	r3, [r3]
	.loc 1 481 43
	vmov	s15, r3	@ int
	vcvt.f32.s32	s13, s15
	.loc 1 481 17
	vldr.32	s14, [r7, #88]
	vdiv.f32	s15, s13, s14
	vstr.32	s15, [r7, #68]
	.loc 1 482 28
	ldr	r2, [r7, #16]
	ldr	r3, [r7, #116]
	add	r3, r3, r2
	addw	r3, r3, #3917
	ldrsb	r3, [r3]
	.loc 1 482 41
	vmov	s15, r3	@ int
	vcvt.f32.s32	s13, s15
	.loc 1 482 16
	vldr.32	s14, [r7, #84]
	vdiv.f32	s15, s13, s14
	vstr.32	s15, [r7, #64]
	.loc 1 483 29
	ldr	r0, [r7, #124]	@ float
	bl	__aeabi_f2d
	mov	r4, r0
	mov	r5, r1
	.loc 1 483 45
	ldr	r2, [r7, #16]
	ldr	r3, [r7, #116]
	add	r3, r3, #804
	lsls	r3, r3, #1
	add	r3, r3, r2
	ldrsh	r3, [r3, #4]
	.loc 1 483 58
	vmov	s15, r3	@ int
	vcvt.f32.s32	s14, s15
	.loc 1 483 72
	vldr.32	s15, [r7, #104]
	vmov.f32	s13, #2.5e+1
	vsub.f32	s13, s15, s13
	.loc 1 483 67
	vldr.32	s15, [r7, #68]
	vmul.f32	s15, s13, s15
	.loc 1 483 62
	vmov.f32	s13, #1.0e+0
	vadd.f32	s15, s15, s13
	.loc 1 483 58
	vmul.f32	s15, s14, s15
	vmov	r0, s15
	bl	__aeabi_f2d
	mov	r8, r0
	mov	r9, r1
	.loc 1 483 86
	ldr	r0, [r7, #64]	@ float
	bl	__aeabi_f2d
	mov	r10, r0
	mov	fp, r1
	.loc 1 483 92
	ldr	r0, [r7, #108]	@ float
	bl	__aeabi_f2d
	adr	r3, .L116+20
	ldrd	r2, [r3]
	bl	__aeabi_dsub
	mov	r2, r0
	mov	r3, r1
	.loc 1 483 86
	mov	r0, r10
	mov	r1, fp
	bl	__aeabi_dmul
	mov	r2, r0
	mov	r3, r1
	mov	r0, r2
	mov	r1, r3
	.loc 1 483 82
	mov	r2, #0
	ldr	r3, .L116+16
	bl	__aeabi_dadd
	mov	r2, r0
	mov	r3, r1
	.loc 1 483 78
	mov	r0, r8
	mov	r1, r9
	bl	__aeabi_dmul
	mov	r2, r0
	mov	r3, r1
	.loc 1 483 29
	mov	r0, r4
	mov	r1, r5
	bl	__aeabi_dsub
	mov	r2, r0
	mov	r3, r1
	.loc 1 483 20
	mov	r0, r2
	mov	r1, r3
	bl	__aeabi_d2f
	mov	r3, r0	@ float
	str	r3, [r7, #124]	@ float
	.loc 1 485 30
	ldr	r3, [r7, #16]
	ldrb	r3, [r3, #37]	@ zero_extendqisi2
	.loc 1 485 15
	ldrb	r2, [r7, #75]	@ zero_extendqisi2
	cmp	r2, r3
	beq	.L97
	.loc 1 487 49
	ldr	r3, [r7, #16]
	add	r3, r3, #4096
	vldr.32	s14, [r3, #612]
	.loc 1 487 58
	ldrsb	r3, [r7, #74]
	lsls	r3, r3, #1
	.loc 1 487 70
	subs	r3, r3, #1
	.loc 1 487 53
	vmov	s15, r3	@ int
	vcvt.f32.s32	s15, s15
	vmul.f32	s14, s14, s15
	.loc 1 487 31
	vldr.32	s15, [r7, #124]
	vadd.f32	s14, s14, s15
	.loc 1 487 93
	ldr	r3, [r7, #16]
	add	r3, r3, #4096
	vldr.32	s13, [r3, #608]
	.loc 1 487 97
	ldrsb	r3, [r7, #72]
	vmov	s15, r3	@ int
	vcvt.f32.s32	s15, s15
	vmul.f32	s15, s13, s15
	.loc 1 487 22
	vsub.f32	s15, s14, s15
	vstr.32	s15, [r7, #124]
.L97:
	.loc 1 490 37
	ldr	r3, [r7, #16]
	vldr.32	s14, [r3, #24]
	.loc 1 490 53
	ldrh	r3, [r7, #114]
	lsls	r3, r3, #2
	adds	r3, r3, #128
	add	r3, r3, r7
	subs	r3, r3, #84
	vldr.32	s15, [r3]
	.loc 1 490 43
	vmul.f32	s15, s14, s15
	.loc 1 490 20
	vldr.32	s14, [r7, #124]
	vsub.f32	s15, s14, s15
	vstr.32	s15, [r7, #124]
	.loc 1 491 20
	vldr.32	s13, [r7, #124]
	vldr.32	s14, [r7, #12]
	vdiv.f32	s15, s13, s14
	vstr.32	s15, [r7, #124]
	.loc 1 493 40
	ldr	r0, [r7, #80]	@ float
	bl	__aeabi_f2d
	adr	r3, .L116
	ldrd	r2, [r3]
	bl	__aeabi_dmul
	mov	r2, r0
	mov	r3, r1
	mov	r4, r2
	mov	r5, r3
	.loc 1 493 65
	ldr	r2, [r7, #16]
	ldr	r3, [r7, #116]
	adds	r3, r3, #36
	lsls	r3, r3, #1
	add	r3, r3, r2
	ldrh	r3, [r3, #2]
	.loc 1 493 51
	mov	r0, r3
	bl	__aeabi_i2d
	mov	r2, r0
	mov	r3, r1
	mov	r0, r4
	mov	r1, r5
	bl	__aeabi_ddiv
	mov	r2, r0
	mov	r3, r1
	.loc 1 493 30
	mov	r0, r2
	mov	r1, r3
	bl	__aeabi_d2f
	mov	r3, r0	@ float
	str	r3, [r7, #60]	@ float
	.loc 1 494 60
	ldr	r3, [r7, #16]
	vldr.32	s14, [r3, #40]
	.loc 1 494 73
	vldr.32	s15, [r7, #104]
	vmov.f32	s13, #2.5e+1
	vsub.f32	s15, s15, s13
	.loc 1 494 67
	vmul.f32	s15, s14, s15
	.loc 1 494 52
	vmov.f32	s14, #1.0e+0
	vadd.f32	s15, s15, s14
	.loc 1 494 30
	vldr.32	s14, [r7, #60]
	vmul.f32	s15, s14, s15
	vstr.32	s15, [r7, #60]
	.loc 1 496 35
	vldr.32	s15, [r7, #60]
	vmul.f32	s14, s15, s15
	.loc 1 496 54
	vldr.32	s15, [r7, #60]
	vmul.f32	s14, s14, s15
	.loc 1 496 102
	vldr.32	s13, [r7, #60]
	vldr.32	s15, [r7, #92]
	vmul.f32	s13, s13, s15
	.loc 1 496 83
	vldr.32	s15, [r7, #124]
	vadd.f32	s15, s13, s15
	.loc 1 496 16
	vmul.f32	s15, s14, s15
	vstr.32	s15, [r7, #56]
	.loc 1 497 18
	ldr	r0, [r7, #56]	@ float
	bl	__aeabi_f2d
	mov	r2, r0
	mov	r3, r1
	vmov	d0, r2, r3
	bl	sqrt
	vmov.f32	s14, s0
	vmov.f32	s15, s1
	vmov.f32	s0, s14
	vmov.f32	s1, s15
	bl	sqrt
	vmov	r4, r5, d0
	.loc 1 497 47
	ldr	r3, [r7, #16]
	ldr	r3, [r3, #48]	@ float
	mov	r0, r3	@ float
	bl	__aeabi_f2d
	mov	r2, r0
	mov	r3, r1
	.loc 1 497 33
	mov	r0, r4
	mov	r1, r5
	bl	__aeabi_dmul
	mov	r2, r0
	mov	r3, r1
	.loc 1 497 16
	mov	r0, r2
	mov	r1, r3
	bl	__aeabi_d2f
	mov	r3, r0	@ float
	str	r3, [r7, #56]	@ float
	.loc 1 499 34
	ldr	r0, [r7, #124]	@ float
	bl	__aeabi_f2d
	mov	r4, r0
	mov	r5, r1
	.loc 1 499 53
	ldr	r0, [r7, #60]	@ float
	bl	__aeabi_f2d
	mov	r8, r0
	mov	r9, r1
	.loc 1 499 72
	ldr	r3, [r7, #16]
	ldr	r3, [r3, #48]	@ float
	mov	r0, r3	@ float
	bl	__aeabi_f2d
	.loc 1 499 76
	adr	r3, .L116+8
	ldrd	r2, [r3]
	bl	__aeabi_dmul
	mov	r2, r0
	mov	r3, r1
	.loc 1 499 58
	mov	r0, #0
	ldr	r1, .L116+16
	bl	__aeabi_dsub
	mov	r2, r0
	mov	r3, r1
	.loc 1 499 53
	mov	r0, r8
	mov	r1, r9
	bl	__aeabi_dmul
	mov	r2, r0
	mov	r3, r1
	mov	r8, r2
	mov	r9, r3
	.loc 1 499 86
	ldr	r0, [r7, #56]	@ float
	bl	__aeabi_f2d
	mov	r2, r0
	mov	r3, r1
	mov	r0, r8
	mov	r1, r9
	bl	__aeabi_dadd
	mov	r2, r0
	mov	r3, r1
	.loc 1 499 34
	mov	r0, r4
	mov	r1, r5
	bl	__aeabi_ddiv
	mov	r2, r0
	mov	r3, r1
	mov	r4, r2
	mov	r5, r3
	.loc 1 499 18
	ldr	r0, [r7, #92]	@ float
	bl	__aeabi_f2d
	mov	r2, r0
	mov	r3, r1
	mov	r0, r4
	mov	r1, r5
	bl	__aeabi_dadd
	mov	r2, r0
	mov	r3, r1
	vmov	d7, r2, r3
	vmov.f32	s0, s14
	vmov.f32	s1, s15
	bl	sqrt
	vmov.f32	s14, s0
	vmov.f32	s15, s1
	vmov.f32	s0, s14
	vmov.f32	s1, s15
	bl	sqrt
	vmov	r0, r1, d0
	.loc 1 499 101
	adr	r3, .L116+8
	ldrd	r2, [r3]
	bl	__aeabi_dsub
	mov	r2, r0
	mov	r3, r1
	.loc 1 499 16
	mov	r0, r2
	mov	r1, r3
	bl	__aeabi_d2f
	mov	r3, r0	@ float
	str	r3, [r7, #52]	@ float
	.loc 1 501 31
	ldr	r3, [r7, #16]
	ldrsh	r3, [r3, #66]
	.loc 1 501 19
	vmov	s15, r3	@ int
	vcvt.f32.s32	s15, s15
	.loc 1 501 15
	vldr.32	s14, [r7, #52]
	vcmpe.f32	s14, s15
	vmrs	APSR_nzcv, FPSCR
	bpl	.L109
	.loc 1 503 23
	movs	r3, #0
	strb	r3, [r7, #122]
	b	.L100
.L109:
	.loc 1 505 36
	ldr	r3, [r7, #16]
	ldrsh	r3, [r3, #68]
	.loc 1 505 24
	vmov	s15, r3	@ int
	vcvt.f32.s32	s15, s15
	.loc 1 505 20
	vldr.32	s14, [r7, #52]
	vcmpe.f32	s14, s15
	vmrs	APSR_nzcv, FPSCR
	bpl	.L110
	.loc 1 507 23
	movs	r3, #1
	strb	r3, [r7, #122]
	b	.L100
.L110:
	.loc 1 509 36
	ldr	r3, [r7, #16]
	ldrsh	r3, [r3, #70]
	.loc 1 509 24
	vmov	s15, r3	@ int
	vcvt.f32.s32	s15, s15
	.loc 1 509 20
	vldr.32	s14, [r7, #52]
	vcmpe.f32	s14, s15
	vmrs	APSR_nzcv, FPSCR
	bpl	.L111
	.loc 1 511 23
	movs	r3, #2
	strb	r3, [r7, #122]
	b	.L100
.L117:
	.align	3
.L116:
	.word	-1598689907
	.word	1051772663
	.word	1717986918
	.word	1081152102
	.word	1072693248
	.word	1717986918
	.word	1074423398
.L111:
	.loc 1 515 23
	movs	r3, #3
	strb	r3, [r7, #122]
.L100:
	.loc 1 518 67
	ldrsb	r3, [r7, #122]
	lsls	r3, r3, #2
	adds	r3, r3, #128
	add	r3, r3, r7
	subs	r3, r3, #100
	vldr.32	s14, [r3]
	.loc 1 518 55
	vldr.32	s15, [r7, #60]
	vmul.f32	s14, s14, s15
	.loc 1 518 94
	ldrsb	r3, [r7, #122]
	ldr	r2, [r7, #16]
	adds	r3, r3, #10
	lsls	r3, r3, #2
	add	r3, r3, r2
	adds	r3, r3, #4
	vldr.32	s13, [r3]
	.loc 1 518 120
	ldrsb	r2, [r7, #122]
	ldr	r3, [r7, #16]
	adds	r2, r2, #32
	ldrsh	r3, [r3, r2, lsl #1]
	.loc 1 518 108
	vmov	s15, r3	@ int
	vcvt.f32.s32	s15, s15
	vldr.32	s12, [r7, #52]
	vsub.f32	s15, s12, s15
	.loc 1 518 102
	vmul.f32	s15, s13, s15
	.loc 1 518 80
	vmov.f32	s13, #1.0e+0
	vadd.f32	s15, s15, s13
	.loc 1 518 75
	vmul.f32	s15, s14, s15
	.loc 1 518 35
	vldr.32	s13, [r7, #124]
	vdiv.f32	s14, s13, s15
	.loc 1 518 131
	vldr.32	s15, [r7, #92]
	vadd.f32	s15, s14, s15
	.loc 1 518 18
	vmov	r0, s15
	bl	__aeabi_f2d
	mov	r2, r0
	mov	r3, r1
	vmov	d0, r2, r3
	bl	sqrt
	vmov.f32	s14, s0
	vmov.f32	s15, s1
	vmov.f32	s0, s14
	vmov.f32	s1, s15
	bl	sqrt
	vmov	r0, r1, d0
	.loc 1 518 140
	adr	r3, .L118
	ldrd	r2, [r3]
	bl	__aeabi_dsub
	mov	r2, r0
	mov	r3, r1
	.loc 1 518 16
	mov	r0, r2
	mov	r1, r3
	bl	__aeabi_d2f
	mov	r3, r0	@ float
	str	r3, [r7, #52]	@ float
	.loc 1 520 19
	ldr	r3, [r7, #116]
	lsls	r3, r3, #2
	ldr	r2, [r7, #4]
	add	r3, r3, r2
	.loc 1 520 33
	ldr	r2, [r7, #52]	@ float
	str	r2, [r3]	@ float
.L96:
	.loc 1 462 61 discriminator 2
	ldr	r3, [r7, #116]
	adds	r3, r3, #1
	str	r3, [r7, #116]
.L87:
	.loc 1 462 43 discriminator 1
	ldr	r3, [r7, #116]
	cmp	r3, #768
	blt	.L105
.LBE9:
	.loc 1 523 1
	nop
	nop
	adds	r7, r7, #128
	.cfi_def_cfa_offset 32
	mov	sp, r7
	.cfi_def_cfa_register 13
	@ sp needed
	pop	{r4, r5, r7, r8, r9, r10, fp, pc}
.L119:
	.align	3
.L118:
	.word	1717986918
	.word	1081152102
	.cfi_endproc
.LFE14:
	.size	MLX90640_CalculateTo, .-MLX90640_CalculateTo
	.section	.text.MLX90640_GetImage,"ax",%progbits
	.align	1
	.global	MLX90640_GetImage
	.syntax unified
	.thumb
	.thumb_func
	.type	MLX90640_GetImage, %function
MLX90640_GetImage:
.LFB15:
	.loc 1 528 1
	.cfi_startproc
	@ args = 0, pretend = 0, frame = 80
	@ frame_needed = 1, uses_anonymous_args = 0
	push	{r4, r5, r7, r8, r9, r10, fp, lr}
	.cfi_def_cfa_offset 32
	.cfi_offset 4, -32
	.cfi_offset 5, -28
	.cfi_offset 7, -24
	.cfi_offset 8, -20
	.cfi_offset 9, -16
	.cfi_offset 10, -12
	.cfi_offset 11, -8
	.cfi_offset 14, -4
	sub	sp, sp, #80
	.cfi_def_cfa_offset 112
	add	r7, sp, #0
	.cfi_def_cfa_register 7
	str	r0, [r7, #12]
	str	r1, [r7, #8]
	str	r2, [r7, #4]
	.loc 1 547 13
	ldr	r3, [r7, #12]
	ldrh	r3, [r3, #1666]	@ movhi
	strh	r3, [r7, #66]	@ movhi
	.loc 1 548 11
	ldr	r1, [r7, #8]
	ldr	r0, [r7, #12]
	bl	MLX90640_GetVdd
	vstr.32	s0, [r7, #60]
	.loc 1 549 10
	ldr	r1, [r7, #8]
	ldr	r0, [r7, #12]
	bl	MLX90640_GetTa
	vstr.32	s0, [r7, #56]
	.loc 1 551 37
	ldr	r3, [r7, #8]
	ldrb	r3, [r3, #3916]	@ zero_extendqisi2
	.loc 1 551 16
	mov	r0, r3
	bl	__aeabi_ui2d
	mov	r2, r0
	mov	r3, r1
	vmov	d1, r2, r3
	vldr.64	d0, .L135
	bl	pow
	vmov	r2, r3, d0
	.loc 1 551 14
	mov	r0, r2
	mov	r1, r3
	bl	__aeabi_d2f
	mov	r3, r0	@ float
	str	r3, [r7, #52]	@ float
	.loc 1 552 36
	ldr	r3, [r7, #8]
	add	r3, r3, #4096
	ldrb	r3, [r3, #589]	@ zero_extendqisi2
	.loc 1 552 15
	mov	r0, r3
	bl	__aeabi_ui2d
	mov	r2, r0
	mov	r3, r1
	vmov	d1, r2, r3
	vldr.64	d0, .L135
	bl	pow
	vmov	r2, r3, d0
	.loc 1 552 13
	mov	r0, r2
	mov	r1, r3
	bl	__aeabi_d2f
	mov	r3, r0	@ float
	str	r3, [r7, #48]	@ float
	.loc 1 556 25
	ldr	r3, [r7, #8]
	ldrsh	r3, [r3, #20]
	.loc 1 556 12
	vmov	s15, r3	@ int
	vcvt.f32.s32	s13, s15
	.loc 1 556 54
	ldr	r3, [r7, #12]
	addw	r3, r3, #1556
	ldrh	r3, [r3]
	.loc 1 556 36
	sxth	r3, r3
	.loc 1 556 34
	vmov	s15, r3	@ int
	vcvt.f32.s32	s14, s15
	.loc 1 556 10
	vdiv.f32	s15, s13, s14
	vstr.32	s15, [r7, #44]
	.loc 1 560 22
	ldr	r3, [r7, #12]
	add	r3, r3, #1664
	ldrh	r3, [r3]
	.loc 1 560 45
	lsrs	r3, r3, #5
	uxtb	r3, r3
	.loc 1 560 10
	bic	r3, r3, #127
	strb	r3, [r7, #43]
	.loc 1 562 37
	ldr	r3, [r7, #12]
	add	r3, r3, #1552
	ldrh	r3, [r3]
	.loc 1 562 19
	sxth	r3, r3
	.loc 1 562 43
	vmov	s15, r3	@ int
	vcvt.f32.s32	s14, s15
	vldr.32	s15, [r7, #44]
	vmul.f32	s15, s14, s15
	.loc 1 562 17
	vstr.32	s15, [r7, #16]
	.loc 1 563 37
	ldr	r3, [r7, #12]
	add	r3, r3, #1616
	ldrh	r3, [r3]
	.loc 1 563 19
	sxth	r3, r3
	.loc 1 563 43
	vmov	s15, r3	@ int
	vcvt.f32.s32	s14, s15
	vldr.32	s15, [r7, #44]
	vmul.f32	s15, s14, s15
	.loc 1 563 17
	vstr.32	s15, [r7, #20]
	.loc 1 565 27
	ldr	r3, [r7, #16]	@ float
	mov	r0, r3	@ float
	bl	__aeabi_f2d
	mov	r4, r0
	mov	r5, r1
	.loc 1 565 49
	ldr	r3, [r7, #8]
	add	r3, r3, #4096
	ldrsh	r3, [r3, #600]
	.loc 1 565 53
	vmov	s15, r3	@ int
	vcvt.f32.s32	s14, s15
	.loc 1 565 66
	ldr	r3, [r7, #8]
	vldr.32	s13, [r3, #32]
	.loc 1 565 80
	vldr.32	s15, [r7, #56]
	vmov.f32	s12, #2.5e+1
	vsub.f32	s15, s15, s12
	.loc 1 565 74
	vmul.f32	s15, s13, s15
	.loc 1 565 58
	vmov.f32	s13, #1.0e+0
	vadd.f32	s15, s15, s13
	.loc 1 565 53
	vmul.f32	s15, s14, s15
	vmov	r0, s15
	bl	__aeabi_f2d
	mov	r8, r0
	mov	r9, r1
	.loc 1 565 100
	ldr	r3, [r7, #8]
	ldr	r3, [r3, #28]	@ float
	mov	r0, r3	@ float
	bl	__aeabi_f2d
	mov	r10, r0
	mov	fp, r1
	.loc 1 565 114
	ldr	r0, [r7, #60]	@ float
	bl	__aeabi_f2d
	adr	r3, .L135+8
	ldrd	r2, [r3]
	bl	__aeabi_dsub
	mov	r2, r0
	mov	r3, r1
	.loc 1 565 107
	mov	r0, r10
	mov	r1, fp
	bl	__aeabi_dmul
	mov	r2, r0
	mov	r3, r1
	mov	r0, r2
	mov	r1, r3
	.loc 1 565 92
	mov	r2, #0
	ldr	r3, .L135+16
	bl	__aeabi_dadd
	mov	r2, r0
	mov	r3, r1
	.loc 1 565 87
	mov	r0, r8
	mov	r1, r9
	bl	__aeabi_dmul
	mov	r2, r0
	mov	r3, r1
	.loc 1 565 31
	mov	r0, r4
	mov	r1, r5
	bl	__aeabi_dsub
	mov	r2, r0
	mov	r3, r1
	mov	r0, r2
	mov	r1, r3
	bl	__aeabi_d2f
	mov	r3, r0	@ float
	.loc 1 565 17
	str	r3, [r7, #16]	@ float
	.loc 1 566 23
	ldr	r3, [r7, #8]
	ldrb	r3, [r3, #37]	@ zero_extendqisi2
	.loc 1 566 7
	ldrb	r2, [r7, #43]	@ zero_extendqisi2
	cmp	r2, r3
	bne	.L121
	.loc 1 568 31
	ldr	r3, [r7, #20]	@ float
	mov	r0, r3	@ float
	bl	__aeabi_f2d
	mov	r4, r0
	mov	r5, r1
	.loc 1 568 53
	ldr	r3, [r7, #8]
	add	r3, r3, #4096
	ldrsh	r3, [r3, #602]
	.loc 1 568 57
	vmov	s15, r3	@ int
	vcvt.f32.s32	s14, s15
	.loc 1 568 70
	ldr	r3, [r7, #8]
	vldr.32	s13, [r3, #32]
	.loc 1 568 84
	vldr.32	s15, [r7, #56]
	vmov.f32	s12, #2.5e+1
	vsub.f32	s15, s15, s12
	.loc 1 568 78
	vmul.f32	s15, s13, s15
	.loc 1 568 62
	vmov.f32	s13, #1.0e+0
	vadd.f32	s15, s15, s13
	.loc 1 568 57
	vmul.f32	s15, s14, s15
	vmov	r0, s15
	bl	__aeabi_f2d
	mov	r8, r0
	mov	r9, r1
	.loc 1 568 104
	ldr	r3, [r7, #8]
	ldr	r3, [r3, #28]	@ float
	mov	r0, r3	@ float
	bl	__aeabi_f2d
	mov	r10, r0
	mov	fp, r1
	.loc 1 568 118
	ldr	r0, [r7, #60]	@ float
	bl	__aeabi_f2d
	adr	r3, .L135+8
	ldrd	r2, [r3]
	bl	__aeabi_dsub
	mov	r2, r0
	mov	r3, r1
	.loc 1 568 111
	mov	r0, r10
	mov	r1, fp
	bl	__aeabi_dmul
	mov	r2, r0
	mov	r3, r1
	mov	r0, r2
	mov	r1, r3
	.loc 1 568 96
	mov	r2, #0
	ldr	r3, .L135+16
	bl	__aeabi_dadd
	mov	r2, r0
	mov	r3, r1
	.loc 1 568 91
	mov	r0, r8
	mov	r1, r9
	bl	__aeabi_dmul
	mov	r2, r0
	mov	r3, r1
	.loc 1 568 35
	mov	r0, r4
	mov	r1, r5
	bl	__aeabi_dsub
	mov	r2, r0
	mov	r3, r1
	mov	r0, r2
	mov	r1, r3
	bl	__aeabi_d2f
	mov	r3, r0	@ float
	.loc 1 568 21
	str	r3, [r7, #20]	@ float
	b	.L122
.L121:
	.loc 1 572 29
	ldr	r3, [r7, #20]	@ float
	mov	r0, r3	@ float
	bl	__aeabi_f2d
	mov	r4, r0
	mov	r5, r1
	.loc 1 572 52
	ldr	r3, [r7, #8]
	add	r3, r3, #4096
	ldrsh	r3, [r3, #602]
	.loc 1 572 56
	vmov	s15, r3	@ int
	vcvt.f32.s32	s14, s15
	.loc 1 572 74
	ldr	r3, [r7, #8]
	add	r3, r3, #4096
	vldr.32	s15, [r3, #604]
	.loc 1 572 56
	vadd.f32	s14, s14, s15
	.loc 1 572 92
	ldr	r3, [r7, #8]
	vldr.32	s13, [r3, #32]
	.loc 1 572 106
	vldr.32	s15, [r7, #56]
	vmov.f32	s12, #2.5e+1
	vsub.f32	s15, s15, s12
	.loc 1 572 100
	vmul.f32	s15, s13, s15
	.loc 1 572 84
	vmov.f32	s13, #1.0e+0
	vadd.f32	s15, s15, s13
	.loc 1 572 79
	vmul.f32	s15, s14, s15
	vmov	r0, s15
	bl	__aeabi_f2d
	mov	r8, r0
	mov	r9, r1
	.loc 1 572 126
	ldr	r3, [r7, #8]
	ldr	r3, [r3, #28]	@ float
	mov	r0, r3	@ float
	bl	__aeabi_f2d
	mov	r10, r0
	mov	fp, r1
	.loc 1 572 140
	ldr	r0, [r7, #60]	@ float
	bl	__aeabi_f2d
	adr	r3, .L135+8
	ldrd	r2, [r3]
	bl	__aeabi_dsub
	mov	r2, r0
	mov	r3, r1
	.loc 1 572 133
	mov	r0, r10
	mov	r1, fp
	bl	__aeabi_dmul
	mov	r2, r0
	mov	r3, r1
	mov	r0, r2
	mov	r1, r3
	.loc 1 572 118
	mov	r2, #0
	ldr	r3, .L135+16
	bl	__aeabi_dadd
	mov	r2, r0
	mov	r3, r1
	.loc 1 572 113
	mov	r0, r8
	mov	r1, r9
	bl	__aeabi_dmul
	mov	r2, r0
	mov	r3, r1
	.loc 1 572 33
	mov	r0, r4
	mov	r1, r5
	bl	__aeabi_dsub
	mov	r2, r0
	mov	r3, r1
	mov	r0, r2
	mov	r1, r3
	bl	__aeabi_d2f
	mov	r3, r0	@ float
	.loc 1 572 19
	str	r3, [r7, #20]	@ float
.L122:
.LBB10:
	.loc 1 575 14
	movs	r3, #0
	str	r3, [r7, #68]
	.loc 1 575 5
	b	.L123
.L136:
	.align	3
.L135:
	.word	0
	.word	1073741824
	.word	1717986918
	.word	1074423398
	.word	1072693248
.L134:
	.loc 1 577 33
	ldr	r3, [r7, #68]
	cmp	r3, #0
	bge	.L124
	adds	r3, r3, #31
.L124:
	asrs	r3, r3, #5
	.loc 1 577 38
	uxtb	r2, r3
	.loc 1 577 53
	ldr	r3, [r7, #68]
	cmp	r3, #0
	bge	.L125
	adds	r3, r3, #63
.L125:
	asrs	r3, r3, #6
	.loc 1 577 38
	uxtb	r3, r3
	lsls	r3, r3, #1
	uxtb	r3, r3
	subs	r3, r2, r3
	uxtb	r3, r3
	.loc 1 577 19
	strb	r3, [r7, #42]
	.loc 1 578 49
	ldr	r3, [r7, #68]
	cmp	r3, #0
	and	r3, r3, #1
	it	lt
	rsblt	r3, r3, #0
	.loc 1 578 34
	sxtb	r2, r3
	.loc 1 578 22
	ldrb	r3, [r7, #42]
	eors	r3, r3, r2
	strb	r3, [r7, #41]
	.loc 1 579 43
	ldr	r3, [r7, #68]
	adds	r3, r3, #2
	.loc 1 579 48
	cmp	r3, #0
	bge	.L126
	adds	r3, r3, #3
.L126:
	asrs	r3, r3, #2
	mov	r2, r3
	.loc 1 579 67
	ldr	r3, [r7, #68]
	adds	r3, r3, #3
	.loc 1 579 72
	cmp	r3, #0
	bge	.L127
	adds	r3, r3, #3
.L127:
	asrs	r3, r3, #2
	rsbs	r3, r3, #0
	.loc 1 579 52
	add	r2, r2, r3
	.loc 1 579 91
	ldr	r3, [r7, #68]
	adds	r3, r3, #1
	.loc 1 579 96
	cmp	r3, #0
	bge	.L128
	adds	r3, r3, #3
.L128:
	asrs	r3, r3, #2
	.loc 1 579 76
	add	r2, r2, r3
	.loc 1 579 114
	ldr	r3, [r7, #68]
	cmp	r3, #0
	bge	.L129
	adds	r3, r3, #3
.L129:
	asrs	r3, r3, #2
	rsbs	r3, r3, #0
	.loc 1 579 100
	add	r3, r3, r2
	.loc 1 579 27
	uxtb	r2, r3
	.loc 1 579 128
	ldrsb	r3, [r7, #42]
	lsls	r3, r3, #1
	.loc 1 579 124
	rsb	r3, r3, #1
	.loc 1 579 27
	uxtb	r3, r3
	smulbb	r3, r2, r3
	uxtb	r3, r3
	strb	r3, [r7, #40]
	.loc 1 581 11
	ldrb	r3, [r7, #43]	@ zero_extendqisi2
	cmp	r3, #0
	bne	.L130
	.loc 1 583 19
	ldrb	r3, [r7, #42]
	strb	r3, [r7, #75]
	b	.L131
.L130:
	.loc 1 587 19
	ldrb	r3, [r7, #41]
	strb	r3, [r7, #75]
.L131:
	.loc 1 590 20
	ldrsb	r3, [r7, #75]
	.loc 1 590 32
	ldr	r2, [r7, #12]
	addw	r2, r2, #1666
	ldrh	r2, [r2]
	.loc 1 590 11
	cmp	r3, r2
	bne	.L132
	.loc 1 592 40
	ldr	r3, [r7, #68]
	lsls	r3, r3, #1
	ldr	r2, [r7, #12]
	add	r3, r3, r2
	ldrh	r3, [r3]
	.loc 1 592 22
	sxth	r3, r3
	.loc 1 592 54
	vmov	s15, r3	@ int
	vcvt.f32.s32	s15, s15
	.loc 1 592 20
	vldr.32	s14, [r7, #44]
	vmul.f32	s15, s14, s15
	vstr.32	s15, [r7, #76]
	.loc 1 594 30
	ldr	r2, [r7, #8]
	ldr	r3, [r7, #68]
	add	r3, r3, r2
	addw	r3, r3, #3148
	ldrsb	r3, [r3]
	.loc 1 594 43
	vmov	s15, r3	@ int
	vcvt.f32.s32	s13, s15
	.loc 1 594 17
	vldr.32	s14, [r7, #52]
	vdiv.f32	s15, s13, s14
	vstr.32	s15, [r7, #36]
	.loc 1 595 28
	ldr	r2, [r7, #8]
	ldr	r3, [r7, #68]
	add	r3, r3, r2
	addw	r3, r3, #3917
	ldrsb	r3, [r3]
	.loc 1 595 41
	vmov	s15, r3	@ int
	vcvt.f32.s32	s13, s15
	.loc 1 595 16
	vldr.32	s14, [r7, #48]
	vdiv.f32	s15, s13, s14
	vstr.32	s15, [r7, #32]
	.loc 1 596 29
	ldr	r0, [r7, #76]	@ float
	bl	__aeabi_f2d
	mov	r4, r0
	mov	r5, r1
	.loc 1 596 45
	ldr	r2, [r7, #8]
	ldr	r3, [r7, #68]
	add	r3, r3, #804
	lsls	r3, r3, #1
	add	r3, r3, r2
	ldrsh	r3, [r3, #4]
	.loc 1 596 58
	vmov	s15, r3	@ int
	vcvt.f32.s32	s14, s15
	.loc 1 596 72
	vldr.32	s15, [r7, #56]
	vmov.f32	s13, #2.5e+1
	vsub.f32	s13, s15, s13
	.loc 1 596 67
	vldr.32	s15, [r7, #36]
	vmul.f32	s15, s13, s15
	.loc 1 596 62
	vmov.f32	s13, #1.0e+0
	vadd.f32	s15, s15, s13
	.loc 1 596 58
	vmul.f32	s15, s14, s15
	vmov	r0, s15
	bl	__aeabi_f2d
	mov	r8, r0
	mov	r9, r1
	.loc 1 596 86
	ldr	r0, [r7, #32]	@ float
	bl	__aeabi_f2d
	mov	r10, r0
	mov	fp, r1
	.loc 1 596 92
	ldr	r0, [r7, #60]	@ float
	bl	__aeabi_f2d
	adr	r3, .L137+4
	ldrd	r2, [r3]
	bl	__aeabi_dsub
	mov	r2, r0
	mov	r3, r1
	.loc 1 596 86
	mov	r0, r10
	mov	r1, fp
	bl	__aeabi_dmul
	mov	r2, r0
	mov	r3, r1
	mov	r0, r2
	mov	r1, r3
	.loc 1 596 82
	mov	r2, #0
	ldr	r3, .L137
	bl	__aeabi_dadd
	mov	r2, r0
	mov	r3, r1
	.loc 1 596 78
	mov	r0, r8
	mov	r1, r9
	bl	__aeabi_dmul
	mov	r2, r0
	mov	r3, r1
	.loc 1 596 29
	mov	r0, r4
	mov	r1, r5
	bl	__aeabi_dsub
	mov	r2, r0
	mov	r3, r1
	.loc 1 596 20
	mov	r0, r2
	mov	r1, r3
	bl	__aeabi_d2f
	mov	r3, r0	@ float
	str	r3, [r7, #76]	@ float
	.loc 1 598 30
	ldr	r3, [r7, #8]
	ldrb	r3, [r3, #37]	@ zero_extendqisi2
	.loc 1 598 15
	ldrb	r2, [r7, #43]	@ zero_extendqisi2
	cmp	r2, r3
	beq	.L133
	.loc 1 600 49
	ldr	r3, [r7, #8]
	add	r3, r3, #4096
	vldr.32	s14, [r3, #612]
	.loc 1 600 58
	ldrsb	r3, [r7, #42]
	lsls	r3, r3, #1
	.loc 1 600 70
	subs	r3, r3, #1
	.loc 1 600 53
	vmov	s15, r3	@ int
	vcvt.f32.s32	s15, s15
	vmul.f32	s14, s14, s15
	.loc 1 600 31
	vldr.32	s15, [r7, #76]
	vadd.f32	s14, s14, s15
	.loc 1 600 93
	ldr	r3, [r7, #8]
	add	r3, r3, #4096
	vldr.32	s13, [r3, #608]
	.loc 1 600 97
	ldrsb	r3, [r7, #40]
	vmov	s15, r3	@ int
	vcvt.f32.s32	s15, s15
	vmul.f32	s15, s13, s15
	.loc 1 600 22
	vsub.f32	s15, s14, s15
	vstr.32	s15, [r7, #76]
.L133:
	.loc 1 603 37
	ldr	r3, [r7, #8]
	vldr.32	s14, [r3, #24]
	.loc 1 603 53
	ldrh	r3, [r7, #66]
	lsls	r3, r3, #2
	adds	r3, r3, #80
	add	r3, r3, r7
	subs	r3, r3, #64
	vldr.32	s15, [r3]
	.loc 1 603 43
	vmul.f32	s15, s14, s15
	.loc 1 603 20
	vldr.32	s14, [r7, #76]
	vsub.f32	s15, s14, s15
	vstr.32	s15, [r7, #76]
	.loc 1 605 45
	ldr	r2, [r7, #8]
	ldr	r3, [r7, #68]
	adds	r3, r3, #36
	lsls	r3, r3, #1
	add	r3, r3, r2
	ldrh	r3, [r3, #2]
	.loc 1 605 30
	vmov	s15, r3	@ int
	vcvt.f32.u32	s15, s15
	vstr.32	s15, [r7, #28]
	.loc 1 607 19
	vldr.32	s14, [r7, #76]
	vldr.32	s15, [r7, #28]
	vmul.f32	s15, s14, s15
	vstr.32	s15, [r7, #24]
	.loc 1 609 19
	ldr	r3, [r7, #68]
	lsls	r3, r3, #2
	ldr	r2, [r7, #4]
	add	r3, r3, r2
	.loc 1 609 33
	ldr	r2, [r7, #24]	@ float
	str	r2, [r3]	@ float
.L132:
	.loc 1 575 61 discriminator 2
	ldr	r3, [r7, #68]
	adds	r3, r3, #1
	str	r3, [r7, #68]
.L123:
	.loc 1 575 43 discriminator 1
	ldr	r3, [r7, #68]
	cmp	r3, #768
	blt	.L134
.LBE10:
	.loc 1 612 1
	nop
	nop
	adds	r7, r7, #80
	.cfi_def_cfa_offset 32
	mov	sp, r7
	.cfi_def_cfa_register 13
	@ sp needed
	pop	{r4, r5, r7, r8, r9, r10, fp, pc}
.L138:
	.align	3
.L137:
	.word	1072693248
	.word	1717986918
	.word	1074423398
	.cfi_endproc
.LFE15:
	.size	MLX90640_GetImage, .-MLX90640_GetImage
	.section	.text.MLX90640_GetVdd,"ax",%progbits
	.align	1
	.global	MLX90640_GetVdd
	.syntax unified
	.thumb
	.thumb_func
	.type	MLX90640_GetVdd, %function
MLX90640_GetVdd:
.LFB16:
	.loc 1 617 1
	.cfi_startproc
	@ args = 0, pretend = 0, frame = 24
	@ frame_needed = 1, uses_anonymous_args = 0
	push	{r4, r5, r7, lr}
	.cfi_def_cfa_offset 16
	.cfi_offset 4, -16
	.cfi_offset 5, -12
	.cfi_offset 7, -8
	.cfi_offset 14, -4
	sub	sp, sp, #24
	.cfi_def_cfa_offset 40
	add	r7, sp, #0
	.cfi_def_cfa_register 7
	str	r0, [r7, #4]
	str	r1, [r7]
	.loc 1 623 31
	ldr	r3, [r7, #4]
	add	r3, r3, #1664
	ldrh	r3, [r3]
	.loc 1 623 69
	lsrs	r3, r3, #10
	uxth	r3, r3
	.loc 1 623 19
	and	r3, r3, #3
	strh	r3, [r7, #22]	@ movhi
	.loc 1 624 49
	ldr	r3, [r7]
	ldrb	r3, [r3, #36]	@ zero_extendqisi2
	.loc 1 624 28
	mov	r0, r3
	bl	__aeabi_ui2d
	mov	r2, r0
	mov	r3, r1
	vmov	d1, r2, r3
	vldr.64	d0, .L141
	bl	pow
	vmov	r4, r5, d0
	.loc 1 624 67
	ldrh	r3, [r7, #22]
	mov	r0, r3
	bl	__aeabi_ui2d
	mov	r2, r0
	mov	r3, r1
	vmov	d1, r2, r3
	vldr.64	d0, .L141
	bl	pow
	vmov	r2, r3, d0
	.loc 1 624 65
	mov	r0, r4
	mov	r1, r5
	bl	__aeabi_ddiv
	mov	r2, r0
	mov	r3, r1
	.loc 1 624 26
	mov	r0, r2
	mov	r1, r3
	bl	__aeabi_d2f
	mov	r3, r0	@ float
	str	r3, [r7, #16]	@ float
	.loc 1 625 53
	ldr	r3, [r7, #4]
	addw	r3, r3, #1620
	ldrh	r3, [r3]
	.loc 1 625 35
	sxth	r3, r3
	.loc 1 625 33
	vmov	s15, r3	@ int
	vcvt.f32.s32	s14, s15
	vldr.32	s15, [r7, #16]
	vmul.f32	s14, s14, s15
	.loc 1 625 67
	ldr	r3, [r7]
	ldrsh	r3, [r3, #2]
	.loc 1 625 59
	vmov	s15, r3	@ int
	vcvt.f32.s32	s15, s15
	vsub.f32	s14, s14, s15
	.loc 1 625 84
	ldr	r3, [r7]
	ldrsh	r3, [r3]
	.loc 1 625 76
	vmov	s15, r3	@ int
	vcvt.f32.s32	s15, s15
	vdiv.f32	s13, s14, s15
	vmov	r0, s13
	bl	__aeabi_f2d
	.loc 1 625 91
	adr	r3, .L141+8
	ldrd	r2, [r3]
	bl	__aeabi_dadd
	mov	r2, r0
	mov	r3, r1
	.loc 1 625 9
	mov	r0, r2
	mov	r1, r3
	bl	__aeabi_d2f
	mov	r3, r0	@ float
	str	r3, [r7, #12]	@ float
	.loc 1 627 12
	ldr	r3, [r7, #12]	@ float
	vmov	s15, r3
	.loc 1 628 1
	vmov.f32	s0, s15
	adds	r7, r7, #24
	.cfi_def_cfa_offset 16
	mov	sp, r7
	.cfi_def_cfa_register 13
	@ sp needed
	pop	{r4, r5, r7, pc}
.L142:
	.align	3
.L141:
	.word	0
	.word	1073741824
	.word	1717986918
	.word	1074423398
	.cfi_endproc
.LFE16:
	.size	MLX90640_GetVdd, .-MLX90640_GetVdd
	.section	.text.MLX90640_GetTa,"ax",%progbits
	.align	1
	.global	MLX90640_GetTa
	.syntax unified
	.thumb
	.thumb_func
	.type	MLX90640_GetTa, %function
MLX90640_GetTa:
.LFB17:
	.loc 1 633 1
	.cfi_startproc
	@ args = 0, pretend = 0, frame = 24
	@ frame_needed = 1, uses_anonymous_args = 0
	push	{r4, r5, r7, r8, r9, lr}
	.cfi_def_cfa_offset 24
	.cfi_offset 4, -24
	.cfi_offset 5, -20
	.cfi_offset 7, -16
	.cfi_offset 8, -12
	.cfi_offset 9, -8
	.cfi_offset 14, -4
	sub	sp, sp, #24
	.cfi_def_cfa_offset 48
	add	r7, sp, #0
	.cfi_def_cfa_register 7
	str	r0, [r7, #4]
	str	r1, [r7]
	.loc 1 639 11
	ldr	r1, [r7]
	ldr	r0, [r7, #4]
	bl	MLX90640_GetVdd
	vstr.32	s0, [r7, #20]
	.loc 1 641 30
	ldr	r3, [r7, #4]
	add	r3, r3, #1600
	ldrh	r3, [r3]
	.loc 1 641 10
	strh	r3, [r7, #18]	@ movhi
	.loc 1 643 21
	ldrsh	r3, [r7, #18]
	vmov	s15, r3	@ int
	vcvt.f32.s32	s13, s15
	.loc 1 643 29
	ldrsh	r3, [r7, #18]
	vmov	s15, r3	@ int
	vcvt.f32.s32	s14, s15
	.loc 1 643 37
	ldr	r3, [r7]
	vldr.32	s15, [r3, #16]
	.loc 1 643 29
	vmul.f32	s14, s14, s15
	.loc 1 643 69
	ldr	r3, [r7, #4]
	add	r3, r3, #1536
	ldrh	r3, [r3]
	.loc 1 643 51
	sxth	r3, r3
	.loc 1 643 49
	vmov	s15, r3	@ int
	vcvt.f32.s32	s15, s15
	vadd.f32	s14, s14, s15
	.loc 1 643 21
	vdiv.f32	s15, s13, s14
	.loc 1 643 13
	vldr.32	s14, .L145+8
	vmul.f32	s15, s15, s14
	vstr.32	s15, [r7, #12]
	.loc 1 645 19
	ldr	r0, [r7, #12]	@ float
	bl	__aeabi_f2d
	mov	r4, r0
	mov	r5, r1
	.loc 1 645 32
	ldr	r3, [r7]
	ldr	r3, [r3, #4]	@ float
	mov	r0, r3	@ float
	bl	__aeabi_f2d
	mov	r8, r0
	mov	r9, r1
	.loc 1 645 48
	ldr	r0, [r7, #20]	@ float
	bl	__aeabi_f2d
	adr	r3, .L145
	ldrd	r2, [r3]
	bl	__aeabi_dsub
	mov	r2, r0
	mov	r3, r1
	.loc 1 645 41
	mov	r0, r8
	mov	r1, r9
	bl	__aeabi_dmul
	mov	r2, r0
	mov	r3, r1
	mov	r0, r2
	mov	r1, r3
	.loc 1 645 24
	mov	r2, #0
	ldr	r3, .L145+12
	bl	__aeabi_dadd
	mov	r2, r0
	mov	r3, r1
	.loc 1 645 19
	mov	r0, r4
	mov	r1, r5
	bl	__aeabi_ddiv
	mov	r2, r0
	mov	r3, r1
	mov	r4, r2
	mov	r5, r3
	.loc 1 645 64
	ldr	r3, [r7]
	ldrh	r3, [r3, #12]
	.loc 1 645 56
	mov	r0, r3
	bl	__aeabi_i2d
	mov	r2, r0
	mov	r3, r1
	mov	r0, r4
	mov	r1, r5
	bl	__aeabi_dsub
	mov	r2, r0
	mov	r3, r1
	.loc 1 645 8
	mov	r0, r2
	mov	r1, r3
	bl	__aeabi_d2f
	mov	r3, r0	@ float
	str	r3, [r7, #8]	@ float
	.loc 1 646 21
	ldr	r3, [r7]
	vldr.32	s14, [r3, #8]
	.loc 1 646 13
	vldr.32	s13, [r7, #8]
	vdiv.f32	s15, s13, s14
	.loc 1 646 8
	vmov.f32	s14, #2.5e+1
	vadd.f32	s15, s15, s14
	vstr.32	s15, [r7, #8]
	.loc 1 648 12
	ldr	r3, [r7, #8]	@ float
	vmov	s15, r3
	.loc 1 649 1
	vmov.f32	s0, s15
	adds	r7, r7, #24
	.cfi_def_cfa_offset 24
	mov	sp, r7
	.cfi_def_cfa_register 13
	@ sp needed
	pop	{r4, r5, r7, r8, r9, pc}
.L146:
	.align	3
.L145:
	.word	1717986918
	.word	1074423398
	.word	1216348160
	.word	1072693248
	.cfi_endproc
.LFE17:
	.size	MLX90640_GetTa, .-MLX90640_GetTa
	.section	.text.MLX90640_GetSubPageNumber,"ax",%progbits
	.align	1
	.global	MLX90640_GetSubPageNumber
	.syntax unified
	.thumb
	.thumb_func
	.type	MLX90640_GetSubPageNumber, %function
MLX90640_GetSubPageNumber:
.LFB18:
	.loc 1 654 1
	.cfi_startproc
	@ args = 0, pretend = 0, frame = 8
	@ frame_needed = 1, uses_anonymous_args = 0
	@ link register save eliminated.
	push	{r7}
	.cfi_def_cfa_offset 4
	.cfi_offset 7, -4
	sub	sp, sp, #12
	.cfi_def_cfa_offset 16
	add	r7, sp, #0
	.cfi_def_cfa_register 7
	str	r0, [r7, #4]
	.loc 1 655 21
	ldr	r3, [r7, #4]
	addw	r3, r3, #1666
	ldrh	r3, [r3]
	.loc 1 657 1
	mov	r0, r3
	adds	r7, r7, #12
	.cfi_def_cfa_offset 4
	mov	sp, r7
	.cfi_def_cfa_register 13
	@ sp needed
	ldr	r7, [sp], #4
	.cfi_restore 7
	.cfi_def_cfa_offset 0
	bx	lr
	.cfi_endproc
.LFE18:
	.size	MLX90640_GetSubPageNumber, .-MLX90640_GetSubPageNumber
	.section	.text.MLX90640_BadPixelsCorrection,"ax",%progbits
	.align	1
	.global	MLX90640_BadPixelsCorrection
	.syntax unified
	.thumb
	.thumb_func
	.type	MLX90640_BadPixelsCorrection, %function
MLX90640_BadPixelsCorrection:
.LFB19:
	.loc 1 661 1
	.cfi_startproc
	@ args = 0, pretend = 0, frame = 40
	@ frame_needed = 1, uses_anonymous_args = 0
	push	{r4, r7, lr}
	.cfi_def_cfa_offset 12
	.cfi_offset 4, -12
	.cfi_offset 7, -8
	.cfi_offset 14, -4
	sub	sp, sp, #44
	.cfi_def_cfa_offset 56
	add	r7, sp, #0
	.cfi_def_cfa_register 7
	str	r0, [r7, #12]
	str	r1, [r7, #8]
	str	r2, [r7, #4]
	str	r3, [r7]
	.loc 1 667 9
	movs	r3, #0
	strb	r3, [r7, #39]
	.loc 1 668 10
	b	.L150
.L169:
	.loc 1 670 22
	ldrb	r3, [r7, #39]	@ zero_extendqisi2
	lsls	r3, r3, #1
	ldr	r2, [r7, #12]
	add	r3, r3, r2
	ldrh	r3, [r3]
	.loc 1 670 14
	lsrs	r3, r3, #5
	uxth	r3, r3
	strb	r3, [r7, #38]
	.loc 1 671 24
	ldrb	r3, [r7, #39]	@ zero_extendqisi2
	lsls	r3, r3, #1
	ldr	r2, [r7, #12]
	add	r3, r3, r2
	ldrh	r3, [r3]
	.loc 1 671 30
	uxtb	r2, r3
	.loc 1 671 37
	ldrb	r3, [r7, #38]
	lsls	r3, r3, #5
	uxtb	r3, r3
	.loc 1 671 16
	subs	r3, r2, r3
	strb	r3, [r7, #37]
	.loc 1 673 11
	ldr	r3, [r7, #4]
	cmp	r3, #1
	bne	.L151
	.loc 1 675 15
	ldrb	r3, [r7, #38]	@ zero_extendqisi2
	cmp	r3, #0
	bne	.L152
	.loc 1 677 19
	ldrb	r3, [r7, #37]	@ zero_extendqisi2
	cmp	r3, #0
	bne	.L153
	.loc 1 679 30
	ldrb	r3, [r7, #39]	@ zero_extendqisi2
	lsls	r3, r3, #1
	ldr	r2, [r7, #12]
	add	r3, r3, r2
	ldrh	r3, [r3]
	.loc 1 679 23
	lsls	r3, r3, #2
	ldr	r2, [r7, #8]
	add	r3, r3, r2
	.loc 1 679 37
	ldr	r2, [r7, #8]
	ldr	r2, [r2, #132]	@ float
	str	r2, [r3]	@ float
	b	.L154
.L153:
	.loc 1 681 24
	ldrb	r3, [r7, #37]	@ zero_extendqisi2
	cmp	r3, #31
	bne	.L155
	.loc 1 683 30
	ldrb	r3, [r7, #39]	@ zero_extendqisi2
	lsls	r3, r3, #1
	ldr	r2, [r7, #12]
	add	r3, r3, r2
	ldrh	r3, [r3]
	.loc 1 683 23
	lsls	r3, r3, #2
	ldr	r2, [r7, #8]
	add	r3, r3, r2
	.loc 1 683 37
	ldr	r2, [r7, #8]
	ldr	r2, [r2, #248]	@ float
	str	r2, [r3]	@ float
	b	.L154
.L155:
	.loc 1 687 49
	ldrb	r3, [r7, #39]	@ zero_extendqisi2
	lsls	r3, r3, #1
	ldr	r2, [r7, #12]
	add	r3, r3, r2
	ldrh	r3, [r3]
	.loc 1 687 42
	adds	r3, r3, #31
	lsls	r3, r3, #2
	ldr	r2, [r7, #8]
	add	r3, r3, r2
	vldr.32	s14, [r3]
	.loc 1 687 70
	ldrb	r3, [r7, #39]	@ zero_extendqisi2
	lsls	r3, r3, #1
	ldr	r2, [r7, #12]
	add	r3, r3, r2
	ldrh	r3, [r3]
	.loc 1 687 63
	adds	r3, r3, #33
	lsls	r3, r3, #2
	ldr	r2, [r7, #8]
	add	r3, r3, r2
	vldr.32	s15, [r3]
	.loc 1 687 59
	vadd.f32	s14, s14, s15
	.loc 1 687 30
	ldrb	r3, [r7, #39]	@ zero_extendqisi2
	lsls	r3, r3, #1
	ldr	r2, [r7, #12]
	add	r3, r3, r2
	ldrh	r3, [r3]
	.loc 1 687 23
	lsls	r3, r3, #2
	ldr	r2, [r7, #8]
	add	r3, r3, r2
	.loc 1 687 80
	vmov.f32	s13, #2.0e+0
	vdiv.f32	s15, s14, s13
	.loc 1 687 37
	vstr.32	s15, [r3]
	b	.L154
.L152:
	.loc 1 690 20
	ldrb	r3, [r7, #38]	@ zero_extendqisi2
	cmp	r3, #23
	bne	.L156
	.loc 1 692 19
	ldrb	r3, [r7, #37]	@ zero_extendqisi2
	cmp	r3, #0
	bne	.L157
	.loc 1 694 30
	ldrb	r3, [r7, #39]	@ zero_extendqisi2
	lsls	r3, r3, #1
	ldr	r2, [r7, #12]
	add	r3, r3, r2
	ldrh	r3, [r3]
	.loc 1 694 23
	lsls	r3, r3, #2
	ldr	r2, [r7, #8]
	add	r3, r3, r2
	.loc 1 694 37
	ldr	r2, [r7, #8]
	addw	r2, r2, #2820
	ldr	r2, [r2]	@ float
	str	r2, [r3]	@ float
	b	.L154
.L157:
	.loc 1 696 24
	ldrb	r3, [r7, #37]	@ zero_extendqisi2
	cmp	r3, #31
	bne	.L158
	.loc 1 698 30
	ldrb	r3, [r7, #39]	@ zero_extendqisi2
	lsls	r3, r3, #1
	ldr	r2, [r7, #12]
	add	r3, r3, r2
	ldrh	r3, [r3]
	.loc 1 698 23
	lsls	r3, r3, #2
	ldr	r2, [r7, #8]
	add	r3, r3, r2
	.loc 1 698 37
	ldr	r2, [r7, #8]
	addw	r2, r2, #2936
	ldr	r2, [r2]	@ float
	str	r2, [r3]	@ float
	b	.L154
.L158:
	.loc 1 702 49
	ldrb	r3, [r7, #39]	@ zero_extendqisi2
	lsls	r3, r3, #1
	ldr	r2, [r7, #12]
	add	r3, r3, r2
	ldrh	r3, [r3]
	.loc 1 702 42
	add	r3, r3, #1073741824
	subs	r3, r3, #33
	lsls	r3, r3, #2
	ldr	r2, [r7, #8]
	add	r3, r3, r2
	vldr.32	s14, [r3]
	.loc 1 702 70
	ldrb	r3, [r7, #39]	@ zero_extendqisi2
	lsls	r3, r3, #1
	ldr	r2, [r7, #12]
	add	r3, r3, r2
	ldrh	r3, [r3]
	.loc 1 702 63
	add	r3, r3, #1073741824
	subs	r3, r3, #31
	lsls	r3, r3, #2
	ldr	r2, [r7, #8]
	add	r3, r3, r2
	vldr.32	s15, [r3]
	.loc 1 702 59
	vadd.f32	s14, s14, s15
	.loc 1 702 30
	ldrb	r3, [r7, #39]	@ zero_extendqisi2
	lsls	r3, r3, #1
	ldr	r2, [r7, #12]
	add	r3, r3, r2
	ldrh	r3, [r3]
	.loc 1 702 23
	lsls	r3, r3, #2
	ldr	r2, [r7, #8]
	add	r3, r3, r2
	.loc 1 702 80
	vmov.f32	s13, #2.0e+0
	vdiv.f32	s15, s14, s13
	.loc 1 702 37
	vstr.32	s15, [r3]
	b	.L154
.L156:
	.loc 1 705 20
	ldrb	r3, [r7, #37]	@ zero_extendqisi2
	cmp	r3, #0
	bne	.L159
	.loc 1 707 45
	ldrb	r3, [r7, #39]	@ zero_extendqisi2
	lsls	r3, r3, #1
	ldr	r2, [r7, #12]
	add	r3, r3, r2
	ldrh	r3, [r3]
	.loc 1 707 38
	add	r3, r3, #1073741824
	subs	r3, r3, #31
	lsls	r3, r3, #2
	ldr	r2, [r7, #8]
	add	r3, r3, r2
	vldr.32	s14, [r3]
	.loc 1 707 66
	ldrb	r3, [r7, #39]	@ zero_extendqisi2
	lsls	r3, r3, #1
	ldr	r2, [r7, #12]
	add	r3, r3, r2
	ldrh	r3, [r3]
	.loc 1 707 59
	adds	r3, r3, #33
	lsls	r3, r3, #2
	ldr	r2, [r7, #8]
	add	r3, r3, r2
	vldr.32	s15, [r3]
	.loc 1 707 55
	vadd.f32	s14, s14, s15
	.loc 1 707 26
	ldrb	r3, [r7, #39]	@ zero_extendqisi2
	lsls	r3, r3, #1
	ldr	r2, [r7, #12]
	add	r3, r3, r2
	ldrh	r3, [r3]
	.loc 1 707 19
	lsls	r3, r3, #2
	ldr	r2, [r7, #8]
	add	r3, r3, r2
	.loc 1 707 76
	vmov.f32	s13, #2.0e+0
	vdiv.f32	s15, s14, s13
	.loc 1 707 33
	vstr.32	s15, [r3]
	b	.L154
.L159:
	.loc 1 709 20
	ldrb	r3, [r7, #37]	@ zero_extendqisi2
	cmp	r3, #31
	bne	.L160
	.loc 1 711 45
	ldrb	r3, [r7, #39]	@ zero_extendqisi2
	lsls	r3, r3, #1
	ldr	r2, [r7, #12]
	add	r3, r3, r2
	ldrh	r3, [r3]
	.loc 1 711 38
	add	r3, r3, #1073741824
	subs	r3, r3, #33
	lsls	r3, r3, #2
	ldr	r2, [r7, #8]
	add	r3, r3, r2
	vldr.32	s14, [r3]
	.loc 1 711 66
	ldrb	r3, [r7, #39]	@ zero_extendqisi2
	lsls	r3, r3, #1
	ldr	r2, [r7, #12]
	add	r3, r3, r2
	ldrh	r3, [r3]
	.loc 1 711 59
	adds	r3, r3, #31
	lsls	r3, r3, #2
	ldr	r2, [r7, #8]
	add	r3, r3, r2
	vldr.32	s15, [r3]
	.loc 1 711 55
	vadd.f32	s14, s14, s15
	.loc 1 711 26
	ldrb	r3, [r7, #39]	@ zero_extendqisi2
	lsls	r3, r3, #1
	ldr	r2, [r7, #12]
	add	r3, r3, r2
	ldrh	r3, [r3]
	.loc 1 711 19
	lsls	r3, r3, #2
	ldr	r2, [r7, #8]
	add	r3, r3, r2
	.loc 1 711 76
	vmov.f32	s13, #2.0e+0
	vdiv.f32	s15, s14, s13
	.loc 1 711 33
	vstr.32	s15, [r3]
	b	.L154
.L160:
	.loc 1 715 34
	ldrb	r3, [r7, #39]	@ zero_extendqisi2
	lsls	r3, r3, #1
	ldr	r2, [r7, #12]
	add	r3, r3, r2
	ldrh	r3, [r3]
	.loc 1 715 27
	add	r3, r3, #1073741824
	subs	r3, r3, #33
	lsls	r3, r3, #2
	ldr	r2, [r7, #8]
	add	r3, r3, r2
	ldr	r3, [r3]	@ float
	.loc 1 715 23
	str	r3, [r7, #20]	@ float
	.loc 1 716 34
	ldrb	r3, [r7, #39]	@ zero_extendqisi2
	lsls	r3, r3, #1
	ldr	r2, [r7, #12]
	add	r3, r3, r2
	ldrh	r3, [r3]
	.loc 1 716 27
	add	r3, r3, #1073741824
	subs	r3, r3, #31
	lsls	r3, r3, #2
	ldr	r2, [r7, #8]
	add	r3, r3, r2
	ldr	r3, [r3]	@ float
	.loc 1 716 23
	str	r3, [r7, #24]	@ float
	.loc 1 717 34
	ldrb	r3, [r7, #39]	@ zero_extendqisi2
	lsls	r3, r3, #1
	ldr	r2, [r7, #12]
	add	r3, r3, r2
	ldrh	r3, [r3]
	.loc 1 717 27
	adds	r3, r3, #31
	lsls	r3, r3, #2
	ldr	r2, [r7, #8]
	add	r3, r3, r2
	ldr	r3, [r3]	@ float
	.loc 1 717 23
	str	r3, [r7, #28]	@ float
	.loc 1 718 34
	ldrb	r3, [r7, #39]	@ zero_extendqisi2
	lsls	r3, r3, #1
	ldr	r2, [r7, #12]
	add	r3, r3, r2
	ldrh	r3, [r3]
	.loc 1 718 27
	adds	r3, r3, #33
	lsls	r3, r3, #2
	ldr	r2, [r7, #8]
	add	r3, r3, r2
	ldr	r3, [r3]	@ float
	.loc 1 718 23
	str	r3, [r7, #32]	@ float
	.loc 1 719 26
	ldrb	r3, [r7, #39]	@ zero_extendqisi2
	lsls	r3, r3, #1
	ldr	r2, [r7, #12]
	add	r3, r3, r2
	ldrh	r3, [r3]
	.loc 1 719 19
	lsls	r3, r3, #2
	ldr	r2, [r7, #8]
	adds	r4, r2, r3
	.loc 1 719 35
	add	r3, r7, #20
	movs	r1, #4
	mov	r0, r3
	bl	GetMedian
	vmov.f32	s15, s0
	.loc 1 719 33
	vstr.32	s15, [r4]
	b	.L154
.L151:
	.loc 1 724 15
	ldrb	r3, [r7, #37]	@ zero_extendqisi2
	cmp	r3, #0
	bne	.L161
	.loc 1 726 44
	ldrb	r3, [r7, #39]	@ zero_extendqisi2
	lsls	r3, r3, #1
	ldr	r2, [r7, #12]
	add	r3, r3, r2
	ldrh	r3, [r3]
	.loc 1 726 37
	adds	r3, r3, #1
	lsls	r3, r3, #2
	ldr	r2, [r7, #8]
	add	r2, r2, r3
	.loc 1 726 26
	ldrb	r3, [r7, #39]	@ zero_extendqisi2
	lsls	r3, r3, #1
	ldr	r1, [r7, #12]
	add	r3, r3, r1
	ldrh	r3, [r3]
	.loc 1 726 19
	lsls	r3, r3, #2
	ldr	r1, [r7, #8]
	add	r3, r3, r1
	.loc 1 726 37
	ldr	r2, [r2]	@ float
	.loc 1 726 33
	str	r2, [r3]	@ float
	b	.L154
.L161:
	.loc 1 728 20
	ldrb	r3, [r7, #37]	@ zero_extendqisi2
	cmp	r3, #1
	beq	.L162
	.loc 1 728 33 discriminator 1
	ldrb	r3, [r7, #37]	@ zero_extendqisi2
	cmp	r3, #30
	bne	.L163
.L162:
	.loc 1 730 45
	ldrb	r3, [r7, #39]	@ zero_extendqisi2
	lsls	r3, r3, #1
	ldr	r2, [r7, #12]
	add	r3, r3, r2
	ldrh	r3, [r3]
	.loc 1 730 38
	add	r3, r3, #1073741824
	subs	r3, r3, #1
	lsls	r3, r3, #2
	ldr	r2, [r7, #8]
	add	r3, r3, r2
	vldr.32	s14, [r3]
	.loc 1 730 63
	ldrb	r3, [r7, #39]	@ zero_extendqisi2
	lsls	r3, r3, #1
	ldr	r2, [r7, #12]
	add	r3, r3, r2
	ldrh	r3, [r3]
	.loc 1 730 56
	adds	r3, r3, #1
	lsls	r3, r3, #2
	ldr	r2, [r7, #8]
	add	r3, r3, r2
	vldr.32	s15, [r3]
	.loc 1 730 53
	vadd.f32	s14, s14, s15
	.loc 1 730 26
	ldrb	r3, [r7, #39]	@ zero_extendqisi2
	lsls	r3, r3, #1
	ldr	r2, [r7, #12]
	add	r3, r3, r2
	ldrh	r3, [r3]
	.loc 1 730 19
	lsls	r3, r3, #2
	ldr	r2, [r7, #8]
	add	r3, r3, r2
	.loc 1 730 72
	vmov.f32	s13, #2.0e+0
	vdiv.f32	s15, s14, s13
	.loc 1 730 33
	vstr.32	s15, [r3]
	b	.L154
.L163:
	.loc 1 732 20
	ldrb	r3, [r7, #37]	@ zero_extendqisi2
	cmp	r3, #31
	bne	.L164
	.loc 1 734 44
	ldrb	r3, [r7, #39]	@ zero_extendqisi2
	lsls	r3, r3, #1
	ldr	r2, [r7, #12]
	add	r3, r3, r2
	ldrh	r3, [r3]
	.loc 1 734 37
	add	r3, r3, #1073741824
	subs	r3, r3, #1
	lsls	r3, r3, #2
	ldr	r2, [r7, #8]
	add	r2, r2, r3
	.loc 1 734 26
	ldrb	r3, [r7, #39]	@ zero_extendqisi2
	lsls	r3, r3, #1
	ldr	r1, [r7, #12]
	add	r3, r3, r1
	ldrh	r3, [r3]
	.loc 1 734 19
	lsls	r3, r3, #2
	ldr	r1, [r7, #8]
	add	r3, r3, r1
	.loc 1 734 37
	ldr	r2, [r2]	@ float
	.loc 1 734 33
	str	r2, [r3]	@ float
	b	.L154
.L164:
	.loc 1 738 37
	ldrb	r3, [r7, #39]	@ zero_extendqisi2
	lsls	r3, r3, #1
	ldr	r2, [r7, #12]
	add	r3, r3, r2
	ldrh	r3, [r3]
	.loc 1 738 20
	subs	r3, r3, #2
	uxth	r3, r3
	ldr	r1, [r7]
	mov	r0, r3
	bl	IsPixelBad
	mov	r3, r0
	.loc 1 738 19
	cmp	r3, #0
	bne	.L165
	.loc 1 738 78 discriminator 1
	ldrb	r3, [r7, #39]	@ zero_extendqisi2
	lsls	r3, r3, #1
	ldr	r2, [r7, #12]
	add	r3, r3, r2
	ldrh	r3, [r3]
	.loc 1 738 61 discriminator 1
	adds	r3, r3, #2
	uxth	r3, r3
	ldr	r1, [r7]
	mov	r0, r3
	bl	IsPixelBad
	mov	r3, r0
	.loc 1 738 58 discriminator 1
	cmp	r3, #0
	bne	.L165
	.loc 1 740 38
	ldrb	r3, [r7, #39]	@ zero_extendqisi2
	lsls	r3, r3, #1
	ldr	r2, [r7, #12]
	add	r3, r3, r2
	ldrh	r3, [r3]
	.loc 1 740 31
	adds	r3, r3, #1
	lsls	r3, r3, #2
	ldr	r2, [r7, #8]
	add	r3, r3, r2
	vldr.32	s14, [r3]
	.loc 1 740 58
	ldrb	r3, [r7, #39]	@ zero_extendqisi2
	lsls	r3, r3, #1
	ldr	r2, [r7, #12]
	add	r3, r3, r2
	ldrh	r3, [r3]
	.loc 1 740 51
	adds	r3, r3, #2
	lsls	r3, r3, #2
	ldr	r2, [r7, #8]
	add	r3, r3, r2
	vldr.32	s15, [r3]
	.loc 1 740 47
	vsub.f32	s15, s14, s15
	.loc 1 740 27
	vstr.32	s15, [r7, #20]
	.loc 1 741 38
	ldrb	r3, [r7, #39]	@ zero_extendqisi2
	lsls	r3, r3, #1
	ldr	r2, [r7, #12]
	add	r3, r3, r2
	ldrh	r3, [r3]
	.loc 1 741 31
	add	r3, r3, #1073741824
	subs	r3, r3, #1
	lsls	r3, r3, #2
	ldr	r2, [r7, #8]
	add	r3, r3, r2
	vldr.32	s14, [r3]
	.loc 1 741 58
	ldrb	r3, [r7, #39]	@ zero_extendqisi2
	lsls	r3, r3, #1
	ldr	r2, [r7, #12]
	add	r3, r3, r2
	ldrh	r3, [r3]
	.loc 1 741 51
	add	r3, r3, #1073741824
	subs	r3, r3, #2
	lsls	r3, r3, #2
	ldr	r2, [r7, #8]
	add	r3, r3, r2
	vldr.32	s15, [r3]
	.loc 1 741 47
	vsub.f32	s15, s14, s15
	.loc 1 741 27
	vstr.32	s15, [r7, #24]
	.loc 1 742 31
	vldr.32	s15, [r7, #20]
	.loc 1 742 24
	vabs.f32	s14, s15
	.loc 1 742 45
	vldr.32	s15, [r7, #24]
	.loc 1 742 38
	vabs.f32	s15, s15
	.loc 1 742 23
	vcmpe.f32	s14, s15
	vmrs	APSR_nzcv, FPSCR
	ble	.L171
	.loc 1 744 52
	ldrb	r3, [r7, #39]	@ zero_extendqisi2
	lsls	r3, r3, #1
	ldr	r2, [r7, #12]
	add	r3, r3, r2
	ldrh	r3, [r3]
	.loc 1 744 45
	add	r3, r3, #1073741824
	subs	r3, r3, #1
	lsls	r3, r3, #2
	ldr	r2, [r7, #8]
	add	r3, r3, r2
	vldr.32	s14, [r3]
	.loc 1 744 65
	vldr.32	s15, [r7, #24]
	.loc 1 744 34
	ldrb	r3, [r7, #39]	@ zero_extendqisi2
	lsls	r3, r3, #1
	ldr	r2, [r7, #12]
	add	r3, r3, r2
	ldrh	r3, [r3]
	.loc 1 744 27
	lsls	r3, r3, #2
	ldr	r2, [r7, #8]
	add	r3, r3, r2
	.loc 1 744 61
	vadd.f32	s15, s14, s15
	.loc 1 744 41
	vstr.32	s15, [r3]
	.loc 1 742 23
	b	.L154
.L171:
	.loc 1 748 52
	ldrb	r3, [r7, #39]	@ zero_extendqisi2
	lsls	r3, r3, #1
	ldr	r2, [r7, #12]
	add	r3, r3, r2
	ldrh	r3, [r3]
	.loc 1 748 45
	adds	r3, r3, #1
	lsls	r3, r3, #2
	ldr	r2, [r7, #8]
	add	r3, r3, r2
	vldr.32	s14, [r3]
	.loc 1 748 65
	vldr.32	s15, [r7, #20]
	.loc 1 748 34
	ldrb	r3, [r7, #39]	@ zero_extendqisi2
	lsls	r3, r3, #1
	ldr	r2, [r7, #12]
	add	r3, r3, r2
	ldrh	r3, [r3]
	.loc 1 748 27
	lsls	r3, r3, #2
	ldr	r2, [r7, #8]
	add	r3, r3, r2
	.loc 1 748 61
	vadd.f32	s15, s14, s15
	.loc 1 748 41
	vstr.32	s15, [r3]
	.loc 1 742 23
	b	.L154
.L165:
	.loc 1 753 49
	ldrb	r3, [r7, #39]	@ zero_extendqisi2
	lsls	r3, r3, #1
	ldr	r2, [r7, #12]
	add	r3, r3, r2
	ldrh	r3, [r3]
	.loc 1 753 42
	add	r3, r3, #1073741824
	subs	r3, r3, #1
	lsls	r3, r3, #2
	ldr	r2, [r7, #8]
	add	r3, r3, r2
	vldr.32	s14, [r3]
	.loc 1 753 67
	ldrb	r3, [r7, #39]	@ zero_extendqisi2
	lsls	r3, r3, #1
	ldr	r2, [r7, #12]
	add	r3, r3, r2
	ldrh	r3, [r3]
	.loc 1 753 60
	adds	r3, r3, #1
	lsls	r3, r3, #2
	ldr	r2, [r7, #8]
	add	r3, r3, r2
	vldr.32	s15, [r3]
	.loc 1 753 57
	vadd.f32	s14, s14, s15
	.loc 1 753 30
	ldrb	r3, [r7, #39]	@ zero_extendqisi2
	lsls	r3, r3, #1
	ldr	r2, [r7, #12]
	add	r3, r3, r2
	ldrh	r3, [r3]
	.loc 1 753 23
	lsls	r3, r3, #2
	ldr	r2, [r7, #8]
	add	r3, r3, r2
	.loc 1 753 76
	vmov.f32	s13, #2.0e+0
	vdiv.f32	s15, s14, s13
	.loc 1 753 37
	vstr.32	s15, [r3]
.L154:
	.loc 1 757 13
	ldrb	r3, [r7, #39]
	adds	r3, r3, #1
	strb	r3, [r7, #39]
.L150:
	.loc 1 668 17
	ldrb	r3, [r7, #39]	@ zero_extendqisi2
	lsls	r3, r3, #1
	ldr	r2, [r7, #12]
	add	r3, r3, r2
	ldrh	r3, [r3]
	.loc 1 668 23
	movw	r2, #65535
	cmp	r3, r2
	bne	.L169
	.loc 1 759 1
	nop
	nop
	adds	r7, r7, #44
	.cfi_def_cfa_offset 12
	mov	sp, r7
	.cfi_def_cfa_register 13
	@ sp needed
	pop	{r4, r7, pc}
	.cfi_endproc
.LFE19:
	.size	MLX90640_BadPixelsCorrection, .-MLX90640_BadPixelsCorrection
	.section	.text.ExtractVDDParameters,"ax",%progbits
	.align	1
	.syntax unified
	.thumb
	.thumb_func
	.type	ExtractVDDParameters, %function
ExtractVDDParameters:
.LFB20:
	.loc 1 764 1
	.cfi_startproc
	@ args = 0, pretend = 0, frame = 16
	@ frame_needed = 1, uses_anonymous_args = 0
	@ link register save eliminated.
	push	{r7}
	.cfi_def_cfa_offset 4
	.cfi_offset 7, -4
	sub	sp, sp, #20
	.cfi_def_cfa_offset 24
	add	r7, sp, #0
	.cfi_def_cfa_register 7
	str	r0, [r7, #4]
	str	r1, [r7]
	.loc 1 768 20
	ldr	r3, [r7, #4]
	adds	r3, r3, #102
	ldrh	r3, [r3]
	.loc 1 768 35
	lsrs	r3, r3, #8
	uxth	r3, r3
	.loc 1 768 10
	strb	r3, [r7, #15]
	.loc 1 770 20
	ldr	r3, [r7, #4]
	adds	r3, r3, #102
	ldrh	r3, [r3]
	sxth	r3, r3
	.loc 1 770 11
	uxtb	r3, r3
	strh	r3, [r7, #12]	@ movhi
	.loc 1 771 21
	ldrh	r3, [r7, #12]
	sub	r3, r3, #256
	uxth	r3, r3
	.loc 1 771 28
	lsls	r3, r3, #5
	uxth	r3, r3
	.loc 1 771 34
	sub	r3, r3, #8192
	uxth	r3, r3
	.loc 1 771 11
	strh	r3, [r7, #12]	@ movhi
	.loc 1 773 25
	ldrsb	r3, [r7, #15]
	uxth	r3, r3
	lsls	r3, r3, #5
	uxth	r3, r3
	sxth	r2, r3
	.loc 1 773 20
	ldr	r3, [r7]
	strh	r2, [r3]	@ movhi
	.loc 1 774 21
	ldr	r3, [r7]
	ldrh	r2, [r7, #12]	@ movhi
	strh	r2, [r3, #2]	@ movhi
	.loc 1 775 1
	nop
	adds	r7, r7, #20
	.cfi_def_cfa_offset 4
	mov	sp, r7
	.cfi_def_cfa_register 13
	@ sp needed
	ldr	r7, [sp], #4
	.cfi_restore 7
	.cfi_def_cfa_offset 0
	bx	lr
	.cfi_endproc
.LFE20:
	.size	ExtractVDDParameters, .-ExtractVDDParameters
	.section	.text.ExtractPTATParameters,"ax",%progbits
	.align	1
	.syntax unified
	.thumb
	.thumb_func
	.type	ExtractPTATParameters, %function
ExtractPTATParameters:
.LFB21:
	.loc 1 780 1
	.cfi_startproc
	@ args = 0, pretend = 0, frame = 24
	@ frame_needed = 1, uses_anonymous_args = 0
	push	{r7, lr}
	.cfi_def_cfa_offset 8
	.cfi_offset 7, -8
	.cfi_offset 14, -4
	sub	sp, sp, #24
	.cfi_def_cfa_offset 32
	add	r7, sp, #0
	.cfi_def_cfa_register 7
	str	r0, [r7, #4]
	str	r1, [r7]
	.loc 1 786 21
	ldr	r3, [r7, #4]
	adds	r3, r3, #100
	ldrh	r3, [r3]
	.loc 1 786 36
	lsrs	r3, r3, #10
	uxth	r3, r3
	vmov	s15, r3	@ int
	.loc 1 786 12
	vcvt.f32.s32	s15, s15
	vstr.32	s15, [r7, #20]
	.loc 1 787 7
	vldr.32	s15, [r7, #20]
	vmov.f32	s14, #3.1e+1
	vcmpe.f32	s15, s14
	vmrs	APSR_nzcv, FPSCR
	ble	.L174
	.loc 1 789 16
	vldr.32	s15, [r7, #20]
	vldr.32	s14, .L180
	vsub.f32	s15, s15, s14
	vstr.32	s15, [r7, #20]
.L174:
	.loc 1 791 12
	vldr.32	s14, [r7, #20]
	vldr.32	s13, .L180+4
	vdiv.f32	s15, s14, s13
	vstr.32	s15, [r7, #20]
	.loc 1 793 20
	ldr	r3, [r7, #4]
	adds	r3, r3, #100
	ldrh	r3, [r3]
	.loc 1 793 25
	ubfx	r3, r3, #0, #10
	.loc 1 793 12
	vmov	s15, r3	@ int
	vcvt.f32.s32	s15, s15
	vstr.32	s15, [r7, #16]
	.loc 1 794 7
	vldr.32	s15, [r7, #16]
	vldr.32	s14, .L180+8
	vcmpe.f32	s15, s14
	vmrs	APSR_nzcv, FPSCR
	ble	.L176
	.loc 1 796 16
	vldr.32	s15, [r7, #16]
	vldr.32	s14, .L180+12
	vsub.f32	s15, s15, s14
	vstr.32	s15, [r7, #16]
.L176:
	.loc 1 798 12
	vldr.32	s14, [r7, #16]
	vmov.f32	s13, #8.0e+0
	vdiv.f32	s15, s14, s13
	vstr.32	s15, [r7, #16]
	.loc 1 800 21
	ldr	r3, [r7, #4]
	adds	r3, r3, #98
	ldrh	r3, [r3]
	.loc 1 800 13
	strh	r3, [r7, #14]	@ movhi
	.loc 1 802 24
	ldr	r3, [r7, #4]
	adds	r3, r3, #32
	ldrh	r3, [r3]
	.loc 1 802 29
	and	r3, r3, #61440
	.loc 1 802 39
	mov	r0, r3
	bl	__aeabi_i2d
	mov	r2, #0
	ldr	r3, .L180+16
	bl	__aeabi_ddiv
	mov	r2, r0
	mov	r3, r1
	mov	r0, r2
	mov	r1, r3
	.loc 1 802 60
	mov	r2, #0
	ldr	r3, .L180+20
	bl	__aeabi_dadd
	mov	r2, r0
	mov	r3, r1
	.loc 1 802 15
	mov	r0, r2
	mov	r1, r3
	bl	__aeabi_d2f
	mov	r3, r0	@ float
	str	r3, [r7, #8]	@ float
	.loc 1 804 22
	ldr	r3, [r7]
	ldr	r2, [r7, #20]	@ float
	str	r2, [r3, #4]	@ float
	.loc 1 805 22
	ldr	r3, [r7]
	ldr	r2, [r7, #16]	@ float
	str	r2, [r3, #8]	@ float
	.loc 1 806 23
	ldrh	r2, [r7, #14]
	ldr	r3, [r7]
	strh	r2, [r3, #12]	@ movhi
	.loc 1 807 25
	ldr	r3, [r7]
	ldr	r2, [r7, #8]	@ float
	str	r2, [r3, #16]	@ float
	.loc 1 808 1
	nop
	adds	r7, r7, #24
	.cfi_def_cfa_offset 8
	mov	sp, r7
	.cfi_def_cfa_register 13
	@ sp needed
	pop	{r7, pc}
.L181:
	.align	2
.L180:
	.word	1115684864
	.word	1166016512
	.word	1140817920
	.word	1149239296
	.word	1087373312
	.word	1075838976
	.cfi_endproc
.LFE21:
	.size	ExtractPTATParameters, .-ExtractPTATParameters
	.section	.text.ExtractGainParameters,"ax",%progbits
	.align	1
	.syntax unified
	.thumb
	.thumb_func
	.type	ExtractGainParameters, %function
ExtractGainParameters:
.LFB22:
	.loc 1 813 1
	.cfi_startproc
	@ args = 0, pretend = 0, frame = 8
	@ frame_needed = 1, uses_anonymous_args = 0
	@ link register save eliminated.
	push	{r7}
	.cfi_def_cfa_offset 4
	.cfi_offset 7, -4
	sub	sp, sp, #12
	.cfi_def_cfa_offset 16
	add	r7, sp, #0
	.cfi_def_cfa_register 7
	str	r0, [r7, #4]
	str	r1, [r7]
	.loc 1 814 39
	ldr	r3, [r7, #4]
	adds	r3, r3, #96
	ldrh	r3, [r3]
	.loc 1 814 24
	sxth	r2, r3
	.loc 1 814 22
	ldr	r3, [r7]
	strh	r2, [r3, #20]	@ movhi
	.loc 1 815 1
	nop
	adds	r7, r7, #12
	.cfi_def_cfa_offset 4
	mov	sp, r7
	.cfi_def_cfa_register 13
	@ sp needed
	ldr	r7, [sp], #4
	.cfi_restore 7
	.cfi_def_cfa_offset 0
	bx	lr
	.cfi_endproc
.LFE22:
	.size	ExtractGainParameters, .-ExtractGainParameters
	.section	.text.ExtractTgcParameters,"ax",%progbits
	.align	1
	.syntax unified
	.thumb
	.thumb_func
	.type	ExtractTgcParameters, %function
ExtractTgcParameters:
.LFB23:
	.loc 1 820 1
	.cfi_startproc
	@ args = 0, pretend = 0, frame = 8
	@ frame_needed = 1, uses_anonymous_args = 0
	@ link register save eliminated.
	push	{r7}
	.cfi_def_cfa_offset 4
	.cfi_offset 7, -4
	sub	sp, sp, #12
	.cfi_def_cfa_offset 16
	add	r7, sp, #0
	.cfi_def_cfa_register 7
	str	r0, [r7, #4]
	str	r1, [r7]
	.loc 1 821 36
	ldr	r3, [r7, #4]
	adds	r3, r3, #120
	ldrh	r3, [r3]
	.loc 1 821 21
	sxtb	r3, r3
	.loc 1 821 51
	vmov	s15, r3	@ int
	vcvt.f32.s32	s14, s15
	vldr.32	s13, .L184
	vdiv.f32	s15, s14, s13
	.loc 1 821 19
	ldr	r3, [r7]
	vstr.32	s15, [r3, #24]
	.loc 1 822 1
	nop
	adds	r7, r7, #12
	.cfi_def_cfa_offset 4
	mov	sp, r7
	.cfi_def_cfa_register 13
	@ sp needed
	ldr	r7, [sp], #4
	.cfi_restore 7
	.cfi_def_cfa_offset 0
	bx	lr
.L185:
	.align	2
.L184:
	.word	1107296256
	.cfi_endproc
.LFE23:
	.size	ExtractTgcParameters, .-ExtractTgcParameters
	.section	.text.ExtractResolutionParameters,"ax",%progbits
	.align	1
	.syntax unified
	.thumb
	.thumb_func
	.type	ExtractResolutionParameters, %function
ExtractResolutionParameters:
.LFB24:
	.loc 1 827 1
	.cfi_startproc
	@ args = 0, pretend = 0, frame = 16
	@ frame_needed = 1, uses_anonymous_args = 0
	@ link register save eliminated.
	push	{r7}
	.cfi_def_cfa_offset 4
	.cfi_offset 7, -4
	sub	sp, sp, #20
	.cfi_def_cfa_offset 24
	add	r7, sp, #0
	.cfi_def_cfa_register 7
	str	r0, [r7, #4]
	str	r1, [r7]
	.loc 1 829 27
	ldr	r3, [r7, #4]
	adds	r3, r3, #112
	ldrh	r3, [r3]
	.loc 1 829 42
	asrs	r3, r3, #12
	uxtb	r3, r3
	.loc 1 829 18
	and	r3, r3, #3
	strb	r3, [r7, #15]
	.loc 1 831 28
	ldr	r3, [r7]
	ldrb	r2, [r7, #15]
	strb	r2, [r3, #36]
	.loc 1 832 1
	nop
	adds	r7, r7, #20
	.cfi_def_cfa_offset 4
	mov	sp, r7
	.cfi_def_cfa_register 13
	@ sp needed
	ldr	r7, [sp], #4
	.cfi_restore 7
	.cfi_def_cfa_offset 0
	bx	lr
	.cfi_endproc
.LFE24:
	.size	ExtractResolutionParameters, .-ExtractResolutionParameters
	.section	.text.ExtractKsTaParameters,"ax",%progbits
	.align	1
	.syntax unified
	.thumb
	.thumb_func
	.type	ExtractKsTaParameters, %function
ExtractKsTaParameters:
.LFB25:
	.loc 1 837 1
	.cfi_startproc
	@ args = 0, pretend = 0, frame = 8
	@ frame_needed = 1, uses_anonymous_args = 0
	@ link register save eliminated.
	push	{r7}
	.cfi_def_cfa_offset 4
	.cfi_offset 7, -4
	sub	sp, sp, #12
	.cfi_def_cfa_offset 16
	add	r7, sp, #0
	.cfi_def_cfa_register 7
	str	r0, [r7, #4]
	str	r1, [r7]
	.loc 1 838 38
	ldr	r3, [r7, #4]
	adds	r3, r3, #120
	ldrh	r3, [r3]
	.loc 1 838 53
	lsrs	r3, r3, #8
	uxth	r3, r3
	.loc 1 838 22
	sxtb	r3, r3
	.loc 1 838 59
	vmov	s15, r3	@ int
	vcvt.f32.s32	s14, s15
	vldr.32	s13, .L188
	vdiv.f32	s15, s14, s13
	.loc 1 838 20
	ldr	r3, [r7]
	vstr.32	s15, [r3, #40]
	.loc 1 839 1
	nop
	adds	r7, r7, #12
	.cfi_def_cfa_offset 4
	mov	sp, r7
	.cfi_def_cfa_register 13
	@ sp needed
	ldr	r7, [sp], #4
	.cfi_restore 7
	.cfi_def_cfa_offset 0
	bx	lr
.L189:
	.align	2
.L188:
	.word	1174405120
	.cfi_endproc
.LFE25:
	.size	ExtractKsTaParameters, .-ExtractKsTaParameters
	.section	.text.ExtractKsToParameters,"ax",%progbits
	.align	1
	.syntax unified
	.thumb
	.thumb_func
	.type	ExtractKsToParameters, %function
ExtractKsToParameters:
.LFB26:
	.loc 1 844 1
	.cfi_startproc
	@ args = 0, pretend = 0, frame = 16
	@ frame_needed = 1, uses_anonymous_args = 0
	@ link register save eliminated.
	push	{r7}
	.cfi_def_cfa_offset 4
	.cfi_offset 7, -4
	sub	sp, sp, #20
	.cfi_def_cfa_offset 24
	add	r7, sp, #0
	.cfi_def_cfa_register 7
	str	r0, [r7, #4]
	str	r1, [r7]
	.loc 1 848 20
	ldr	r3, [r7, #4]
	adds	r3, r3, #126
	ldrh	r3, [r3]
	.loc 1 848 35
	asrs	r3, r3, #12
	.loc 1 848 10
	uxtb	r3, r3
	and	r3, r3, #3
	uxtb	r3, r3
	mov	r2, r3
	lsls	r2, r2, #2
	add	r3, r3, r2
	lsls	r3, r3, #1
	uxtb	r3, r3
	strb	r3, [r7, #15]
	.loc 1 850 21
	ldr	r3, [r7]
	movw	r2, #65496
	strh	r2, [r3, #64]	@ movhi
	.loc 1 851 21
	ldr	r3, [r7]
	movs	r2, #0
	strh	r2, [r3, #66]	@ movhi
	.loc 1 852 31
	ldr	r3, [r7, #4]
	adds	r3, r3, #126
	ldrh	r3, [r3]
	.loc 1 852 46
	asrs	r3, r3, #4
	sxth	r3, r3
	and	r3, r3, #15
	sxth	r2, r3
	.loc 1 852 21
	ldr	r3, [r7]
	strh	r2, [r3, #68]	@ movhi
	.loc 1 853 31
	ldr	r3, [r7, #4]
	adds	r3, r3, #126
	ldrh	r3, [r3]
	.loc 1 853 46
	asrs	r3, r3, #8
	sxth	r3, r3
	and	r3, r3, #15
	sxth	r2, r3
	.loc 1 853 21
	ldr	r3, [r7]
	strh	r2, [r3, #70]	@ movhi
	.loc 1 855 35
	ldr	r3, [r7]
	ldrsh	r3, [r3, #68]
	uxth	r2, r3
	.loc 1 855 38
	ldrsb	r3, [r7, #15]
	uxth	r3, r3
	smulbb	r3, r2, r3
	uxth	r3, r3
	sxth	r2, r3
	.loc 1 855 21
	ldr	r3, [r7]
	strh	r2, [r3, #68]	@ movhi
	.loc 1 856 35
	ldr	r3, [r7]
	ldrsh	r3, [r3, #68]
	uxth	r2, r3
	.loc 1 856 53
	ldr	r3, [r7]
	ldrsh	r3, [r3, #70]
	uxth	r1, r3
	.loc 1 856 56
	ldrsb	r3, [r7, #15]
	uxth	r3, r3
	smulbb	r3, r1, r3
	uxth	r3, r3
	.loc 1 856 39
	add	r3, r3, r2
	uxth	r3, r3
	sxth	r2, r3
	.loc 1 856 21
	ldr	r3, [r7]
	strh	r2, [r3, #70]	@ movhi
	.loc 1 857 21
	ldr	r3, [r7]
	mov	r2, #400
	strh	r2, [r3, #72]	@ movhi
	.loc 1 859 25
	ldr	r3, [r7, #4]
	adds	r3, r3, #126
	ldrh	r3, [r3]
	.loc 1 859 30
	and	r3, r3, #15
	.loc 1 859 15
	adds	r3, r3, #8
	str	r3, [r7, #8]
	.loc 1 860 21
	movs	r2, #1
	ldr	r3, [r7, #8]
	lsl	r3, r2, r3
	.loc 1 860 15
	str	r3, [r7, #8]
	.loc 1 862 40
	ldr	r3, [r7, #4]
	adds	r3, r3, #122
	ldrh	r3, [r3]
	.loc 1 862 25
	sxtb	r3, r3
	.loc 1 862 55
	vmov	s15, r3	@ int
	vcvt.f32.s32	s13, s15
	.loc 1 862 57
	ldr	r3, [r7, #8]
	vmov	s15, r3	@ int
	vcvt.f32.s32	s14, s15
	.loc 1 862 55
	vdiv.f32	s15, s13, s14
	.loc 1 862 23
	ldr	r3, [r7]
	vstr.32	s15, [r3, #44]
	.loc 1 863 41
	ldr	r3, [r7, #4]
	adds	r3, r3, #122
	ldrh	r3, [r3]
	.loc 1 863 56
	lsrs	r3, r3, #8
	uxth	r3, r3
	.loc 1 863 25
	sxtb	r3, r3
	.loc 1 863 62
	vmov	s15, r3	@ int
	vcvt.f32.s32	s13, s15
	.loc 1 863 64
	ldr	r3, [r7, #8]
	vmov	s15, r3	@ int
	vcvt.f32.s32	s14, s15
	.loc 1 863 62
	vdiv.f32	s15, s13, s14
	.loc 1 863 23
	ldr	r3, [r7]
	vstr.32	s15, [r3, #48]
	.loc 1 864 40
	ldr	r3, [r7, #4]
	adds	r3, r3, #124
	ldrh	r3, [r3]
	.loc 1 864 25
	sxtb	r3, r3
	.loc 1 864 55
	vmov	s15, r3	@ int
	vcvt.f32.s32	s13, s15
	.loc 1 864 57
	ldr	r3, [r7, #8]
	vmov	s15, r3	@ int
	vcvt.f32.s32	s14, s15
	.loc 1 864 55
	vdiv.f32	s15, s13, s14
	.loc 1 864 23
	ldr	r3, [r7]
	vstr.32	s15, [r3, #52]
	.loc 1 865 41
	ldr	r3, [r7, #4]
	adds	r3, r3, #124
	ldrh	r3, [r3]
	.loc 1 865 56
	lsrs	r3, r3, #8
	uxth	r3, r3
	.loc 1 865 25
	sxtb	r3, r3
	.loc 1 865 62
	vmov	s15, r3	@ int
	vcvt.f32.s32	s13, s15
	.loc 1 865 64
	ldr	r3, [r7, #8]
	vmov	s15, r3	@ int
	vcvt.f32.s32	s14, s15
	.loc 1 865 62
	vdiv.f32	s15, s13, s14
	.loc 1 865 23
	ldr	r3, [r7]
	vstr.32	s15, [r3, #56]
	.loc 1 866 23
	ldr	r3, [r7]
	ldr	r2, .L191
	str	r2, [r3, #60]	@ float
	.loc 1 867 1
	nop
	adds	r7, r7, #20
	.cfi_def_cfa_offset 4
	mov	sp, r7
	.cfi_def_cfa_register 13
	@ sp needed
	ldr	r7, [sp], #4
	.cfi_restore 7
	.cfi_def_cfa_offset 0
	bx	lr
.L192:
	.align	2
.L191:
	.word	-1185827049
	.cfi_endproc
.LFE26:
	.size	ExtractKsToParameters, .-ExtractKsToParameters
	.global	__aeabi_dcmplt
	.global	__aeabi_d2uiz
	.section	.text.ExtractAlphaParameters,"ax",%progbits
	.align	1
	.syntax unified
	.thumb
	.thumb_func
	.type	ExtractAlphaParameters, %function
ExtractAlphaParameters:
.LFB27:
	.loc 1 872 1
	.cfi_startproc
	@ args = 0, pretend = 0, frame = 3360
	@ frame_needed = 1, uses_anonymous_args = 0
	push	{r4, r5, r7, lr}
	.cfi_def_cfa_offset 16
	.cfi_offset 4, -16
	.cfi_offset 5, -12
	.cfi_offset 7, -8
	.cfi_offset 14, -4
	sub	sp, sp, #3360
	.cfi_def_cfa_offset 3376
	add	r7, sp, #0
	.cfi_def_cfa_register 7
	add	r3, r7, #3360
	subw	r3, r3, #3356
	str	r0, [r3]
	add	r3, r7, #3360
	sub	r3, r3, #3360
	str	r1, [r3]
	.loc 1 875 9
	movs	r3, #0
	str	r3, [r7, #3316]
	.loc 1 885 27
	add	r3, r7, #3360
	subw	r3, r3, #3356
	ldr	r3, [r3]
	adds	r3, r3, #64
	ldrh	r3, [r3]
	.loc 1 885 32
	uxtb	r3, r3
	.loc 1 885 17
	and	r3, r3, #15
	strb	r3, [r7, #3315]
	.loc 1 886 30
	add	r3, r7, #3360
	subw	r3, r3, #3356
	ldr	r3, [r3]
	adds	r3, r3, #64
	ldrh	r3, [r3]
	.loc 1 886 45
	asrs	r3, r3, #4
	uxtb	r3, r3
	.loc 1 886 20
	and	r3, r3, #15
	strb	r3, [r7, #3314]
	.loc 1 887 27
	add	r3, r7, #3360
	subw	r3, r3, #3356
	ldr	r3, [r3]
	adds	r3, r3, #64
	ldrh	r3, [r3]
	.loc 1 887 42
	asrs	r3, r3, #8
	uxtb	r3, r3
	.loc 1 887 17
	and	r3, r3, #15
	strb	r3, [r7, #3313]
	.loc 1 888 26
	add	r3, r7, #3360
	subw	r3, r3, #3356
	ldr	r3, [r3]
	adds	r3, r3, #64
	ldrh	r3, [r3]
	.loc 1 888 41
	lsrs	r3, r3, #12
	uxth	r3, r3
	.loc 1 888 48
	uxtb	r3, r3
	.loc 1 888 16
	adds	r3, r3, #30
	strb	r3, [r7, #3359]
	.loc 1 889 22
	add	r3, r7, #3360
	subw	r3, r3, #3356
	ldr	r3, [r3]
	adds	r3, r3, #66
	ldrh	r3, [r3]
	.loc 1 889 14
	str	r3, [r7, #3308]
.LBB11:
	.loc 1 891 13
	movs	r3, #0
	str	r3, [r7, #3348]
	.loc 1 891 5
	b	.L194
.L195:
	.loc 1 893 11 discriminator 3
	ldr	r3, [r7, #3348]
	lsls	r3, r3, #2
	str	r3, [r7, #3316]
	.loc 1 894 37 discriminator 3
	ldr	r3, [r7, #3348]
	adds	r3, r3, #34
	.loc 1 894 33 discriminator 3
	lsls	r3, r3, #1
	add	r2, r7, #3360
	subw	r2, r2, #3356
	ldr	r2, [r2]
	add	r3, r3, r2
	ldrh	r3, [r3]
	.loc 1 894 42 discriminator 3
	and	r2, r3, #15
	.loc 1 894 23 discriminator 3
	ldr	r3, [r7, #3316]
	lsls	r3, r3, #2
	add	r3, r3, #3360
	add	r3, r3, r7
	str	r2, [r3, #-148]
	.loc 1 895 37 discriminator 3
	ldr	r3, [r7, #3348]
	adds	r3, r3, #34
	.loc 1 895 33 discriminator 3
	lsls	r3, r3, #1
	add	r2, r7, #3360
	subw	r2, r2, #3356
	ldr	r2, [r2]
	add	r3, r3, r2
	ldrh	r3, [r3]
	.loc 1 895 52 discriminator 3
	asrs	r2, r3, #4
	.loc 1 895 18 discriminator 3
	ldr	r3, [r7, #3316]
	adds	r3, r3, #1
	.loc 1 895 52 discriminator 3
	and	r2, r2, #15
	.loc 1 895 23 discriminator 3
	lsls	r3, r3, #2
	add	r3, r3, #3360
	add	r3, r3, r7
	str	r2, [r3, #-148]
	.loc 1 896 37 discriminator 3
	ldr	r3, [r7, #3348]
	adds	r3, r3, #34
	.loc 1 896 33 discriminator 3
	lsls	r3, r3, #1
	add	r2, r7, #3360
	subw	r2, r2, #3356
	ldr	r2, [r2]
	add	r3, r3, r2
	ldrh	r3, [r3]
	.loc 1 896 52 discriminator 3
	asrs	r2, r3, #8
	.loc 1 896 18 discriminator 3
	ldr	r3, [r7, #3316]
	adds	r3, r3, #2
	.loc 1 896 52 discriminator 3
	and	r2, r2, #15
	.loc 1 896 23 discriminator 3
	lsls	r3, r3, #2
	add	r3, r3, #3360
	add	r3, r3, r7
	str	r2, [r3, #-148]
	.loc 1 897 37 discriminator 3
	ldr	r3, [r7, #3348]
	adds	r3, r3, #34
	.loc 1 897 33 discriminator 3
	lsls	r3, r3, #1
	add	r2, r7, #3360
	subw	r2, r2, #3356
	ldr	r2, [r2]
	add	r3, r3, r2
	ldrh	r3, [r3]
	.loc 1 897 52 discriminator 3
	lsrs	r3, r3, #12
	uxth	r2, r3
	.loc 1 897 18 discriminator 3
	ldr	r3, [r7, #3316]
	adds	r3, r3, #3
	.loc 1 897 23 discriminator 3
	lsls	r3, r3, #2
	add	r3, r3, #3360
	add	r3, r3, r7
	str	r2, [r3, #-148]
	.loc 1 891 28 discriminator 3
	ldr	r3, [r7, #3348]
	adds	r3, r3, #1
	str	r3, [r7, #3348]
.L194:
	.loc 1 891 22 discriminator 1
	ldr	r3, [r7, #3348]
	cmp	r3, #5
	ble	.L195
.LBE11:
.LBB12:
	.loc 1 900 13
	movs	r3, #0
	str	r3, [r7, #3344]
	.loc 1 900 5
	b	.L196
.L198:
	.loc 1 902 19
	ldr	r3, [r7, #3344]
	lsls	r3, r3, #2
	add	r3, r3, #3360
	add	r3, r3, r7
	ldr	r3, [r3, #-148]
	.loc 1 902 12
	cmp	r3, #7
	ble	.L197
	.loc 1 904 31
	ldr	r3, [r7, #3344]
	lsls	r3, r3, #2
	add	r3, r3, #3360
	add	r3, r3, r7
	ldr	r3, [r3, #-148]
	.loc 1 904 35
	sub	r2, r3, #16
	.loc 1 904 23
	ldr	r3, [r7, #3344]
	lsls	r3, r3, #2
	add	r3, r3, #3360
	add	r3, r3, r7
	str	r2, [r3, #-148]
.L197:
	.loc 1 900 29 discriminator 2
	ldr	r3, [r7, #3344]
	adds	r3, r3, #1
	str	r3, [r7, #3344]
.L196:
	.loc 1 900 22 discriminator 1
	ldr	r3, [r7, #3344]
	cmp	r3, #23
	ble	.L198
.LBE12:
.LBB13:
	.loc 1 908 13
	movs	r3, #0
	str	r3, [r7, #3340]
	.loc 1 908 5
	b	.L199
.L200:
	.loc 1 910 11 discriminator 3
	ldr	r3, [r7, #3340]
	lsls	r3, r3, #2
	str	r3, [r7, #3316]
	.loc 1 911 40 discriminator 3
	ldr	r3, [r7, #3340]
	adds	r3, r3, #40
	.loc 1 911 36 discriminator 3
	lsls	r3, r3, #1
	add	r2, r7, #3360
	subw	r2, r2, #3356
	ldr	r2, [r2]
	add	r3, r3, r2
	ldrh	r3, [r3]
	.loc 1 911 45 discriminator 3
	and	r1, r3, #15
	.loc 1 911 26 discriminator 3
	add	r3, r7, #3360
	sub	r3, r3, #276
	ldr	r2, [r7, #3316]
	str	r1, [r3, r2, lsl #2]
	.loc 1 912 40 discriminator 3
	ldr	r3, [r7, #3340]
	adds	r3, r3, #40
	.loc 1 912 36 discriminator 3
	lsls	r3, r3, #1
	add	r2, r7, #3360
	subw	r2, r2, #3356
	ldr	r2, [r2]
	add	r3, r3, r2
	ldrh	r3, [r3]
	.loc 1 912 55 discriminator 3
	asrs	r3, r3, #4
	.loc 1 912 21 discriminator 3
	ldr	r2, [r7, #3316]
	adds	r2, r2, #1
	.loc 1 912 55 discriminator 3
	and	r1, r3, #15
	.loc 1 912 26 discriminator 3
	add	r3, r7, #3360
	sub	r3, r3, #276
	str	r1, [r3, r2, lsl #2]
	.loc 1 913 40 discriminator 3
	ldr	r3, [r7, #3340]
	adds	r3, r3, #40
	.loc 1 913 36 discriminator 3
	lsls	r3, r3, #1
	add	r2, r7, #3360
	subw	r2, r2, #3356
	ldr	r2, [r2]
	add	r3, r3, r2
	ldrh	r3, [r3]
	.loc 1 913 55 discriminator 3
	asrs	r3, r3, #8
	.loc 1 913 21 discriminator 3
	ldr	r2, [r7, #3316]
	adds	r2, r2, #2
	.loc 1 913 55 discriminator 3
	and	r1, r3, #15
	.loc 1 913 26 discriminator 3
	add	r3, r7, #3360
	sub	r3, r3, #276
	str	r1, [r3, r2, lsl #2]
	.loc 1 914 40 discriminator 3
	ldr	r3, [r7, #3340]
	adds	r3, r3, #40
	.loc 1 914 36 discriminator 3
	lsls	r3, r3, #1
	add	r2, r7, #3360
	subw	r2, r2, #3356
	ldr	r2, [r2]
	add	r3, r3, r2
	ldrh	r3, [r3]
	.loc 1 914 55 discriminator 3
	lsrs	r3, r3, #12
	uxth	r1, r3
	.loc 1 914 21 discriminator 3
	ldr	r3, [r7, #3316]
	adds	r2, r3, #3
	.loc 1 914 26 discriminator 3
	add	r3, r7, #3360
	sub	r3, r3, #276
	str	r1, [r3, r2, lsl #2]
	.loc 1 908 28 discriminator 3
	ldr	r3, [r7, #3340]
	adds	r3, r3, #1
	str	r3, [r7, #3340]
.L199:
	.loc 1 908 22 discriminator 1
	ldr	r3, [r7, #3340]
	cmp	r3, #7
	ble	.L200
.LBE13:
.LBB14:
	.loc 1 917 13
	movs	r3, #0
	str	r3, [r7, #3336]
	.loc 1 917 5
	b	.L201
.L203:
	.loc 1 919 22
	add	r3, r7, #3360
	sub	r3, r3, #276
	ldr	r2, [r7, #3336]
	ldr	r3, [r3, r2, lsl #2]
	.loc 1 919 12
	cmp	r3, #7
	ble	.L202
	.loc 1 921 37
	add	r3, r7, #3360
	sub	r3, r3, #276
	ldr	r2, [r7, #3336]
	ldr	r3, [r3, r2, lsl #2]
	.loc 1 921 41
	sub	r1, r3, #16
	.loc 1 921 26
	add	r3, r7, #3360
	sub	r3, r3, #276
	ldr	r2, [r7, #3336]
	str	r1, [r3, r2, lsl #2]
.L202:
	.loc 1 917 29 discriminator 2
	ldr	r3, [r7, #3336]
	adds	r3, r3, #1
	str	r3, [r7, #3336]
.L201:
	.loc 1 917 22 discriminator 1
	ldr	r3, [r7, #3336]
	cmp	r3, #31
	ble	.L203
.LBE14:
.LBB15:
	.loc 1 925 13
	movs	r3, #0
	str	r3, [r7, #3332]
	.loc 1 925 5
	b	.L204
.L209:
.LBB16:
	.loc 1 927 17
	movs	r3, #0
	str	r3, [r7, #3328]
	.loc 1 927 9
	b	.L205
.L208:
	.loc 1 929 20
	ldr	r3, [r7, #3332]
	lsls	r3, r3, #5
	.loc 1 929 15
	ldr	r2, [r7, #3328]
	add	r3, r3, r2
	str	r3, [r7, #3316]
	.loc 1 930 39
	ldr	r3, [r7, #3316]
	adds	r3, r3, #64
	.loc 1 930 35
	lsls	r3, r3, #1
	add	r2, r7, #3360
	subw	r2, r2, #3356
	ldr	r2, [r2]
	add	r3, r3, r2
	ldrh	r3, [r3]
	.loc 1 930 54
	asrs	r3, r3, #4
	and	r3, r3, #63
	.loc 1 930 26
	vmov	s15, r3	@ int
	vcvt.f32.s32	s15, s15
	add	r3, r7, #3360
	subw	r2, r3, #3348
	ldr	r3, [r7, #3316]
	lsls	r3, r3, #2
	add	r3, r3, r2
	vstr.32	s15, [r3]
	.loc 1 931 26
	add	r3, r7, #3360
	subw	r2, r3, #3348
	ldr	r3, [r7, #3316]
	lsls	r3, r3, #2
	add	r3, r3, r2
	vldr.32	s15, [r3]
	.loc 1 931 16
	vmov.f32	s14, #3.1e+1
	vcmpe.f32	s15, s14
	vmrs	APSR_nzcv, FPSCR
	ble	.L206
	.loc 1 933 41
	add	r3, r7, #3360
	subw	r2, r3, #3348
	ldr	r3, [r7, #3316]
	lsls	r3, r3, #2
	add	r3, r3, r2
	vldr.32	s15, [r3]
	.loc 1 933 45
	vldr.32	s14, .L220+24
	vsub.f32	s15, s15, s14
	.loc 1 933 30
	add	r3, r7, #3360
	subw	r2, r3, #3348
	ldr	r3, [r7, #3316]
	lsls	r3, r3, #2
	add	r3, r3, r2
	vstr.32	s15, [r3]
.L206:
	.loc 1 935 37 discriminator 2
	add	r3, r7, #3360
	subw	r2, r3, #3348
	ldr	r3, [r7, #3316]
	lsls	r3, r3, #2
	add	r3, r3, r2
	vldr.32	s14, [r3]
	.loc 1 935 44 discriminator 2
	ldrb	r3, [r7, #3315]	@ zero_extendqisi2
	movs	r2, #1
	lsl	r3, r2, r3
	.loc 1 935 40 discriminator 2
	vmov	s15, r3	@ int
	vcvt.f32.s32	s15, s15
	vmul.f32	s15, s14, s15
	.loc 1 935 26 discriminator 2
	add	r3, r7, #3360
	subw	r2, r3, #3348
	ldr	r3, [r7, #3316]
	lsls	r3, r3, #2
	add	r3, r3, r2
	vstr.32	s15, [r3]
	.loc 1 936 47 discriminator 2
	ldr	r3, [r7, #3332]
	lsls	r3, r3, #2
	add	r3, r3, #3360
	add	r3, r3, r7
	ldr	r2, [r3, #-148]
	.loc 1 936 51 discriminator 2
	ldrb	r3, [r7, #3313]	@ zero_extendqisi2
	lsls	r2, r2, r3
	.loc 1 936 38 discriminator 2
	ldr	r3, [r7, #3308]
	add	r2, r2, r3
	.loc 1 936 79 discriminator 2
	add	r3, r7, #3360
	sub	r3, r3, #276
	ldr	r1, [r7, #3328]
	ldr	r1, [r3, r1, lsl #2]
	.loc 1 936 83 discriminator 2
	ldrb	r3, [r7, #3314]	@ zero_extendqisi2
	lsl	r3, r1, r3
	.loc 1 936 67 discriminator 2
	add	r3, r3, r2
	.loc 1 936 102 discriminator 2
	vmov	s15, r3	@ int
	vcvt.f32.s32	s14, s15
	.loc 1 936 113 discriminator 2
	add	r3, r7, #3360
	subw	r2, r3, #3348
	ldr	r3, [r7, #3316]
	lsls	r3, r3, #2
	add	r3, r3, r2
	vldr.32	s15, [r3]
	.loc 1 936 102 discriminator 2
	vadd.f32	s15, s14, s15
	.loc 1 936 26 discriminator 2
	add	r3, r7, #3360
	subw	r2, r3, #3348
	ldr	r3, [r7, #3316]
	lsls	r3, r3, #2
	add	r3, r3, r2
	vstr.32	s15, [r3]
	.loc 1 937 37 discriminator 2
	add	r3, r7, #3360
	subw	r2, r3, #3348
	ldr	r3, [r7, #3316]
	lsls	r3, r3, #2
	add	r3, r3, r2
	ldr	r3, [r3]	@ float
	mov	r0, r3	@ float
	bl	__aeabi_f2d
	mov	r4, r0
	mov	r5, r1
	.loc 1 937 43 discriminator 2
	ldrb	r3, [r7, #3359]	@ zero_extendqisi2
	mov	r0, r3
	bl	__aeabi_ui2d
	mov	r2, r0
	mov	r3, r1
	vmov	d1, r2, r3
	vldr.64	d0, .L220
	bl	pow
	vmov	r2, r3, d0
	.loc 1 937 41 discriminator 2
	mov	r0, r4
	mov	r1, r5
	bl	__aeabi_ddiv
	mov	r2, r0
	mov	r3, r1
	mov	r0, r2
	mov	r1, r3
	bl	__aeabi_d2f
	mov	r1, r0	@ float
	.loc 1 937 26 discriminator 2
	add	r3, r7, #3360
	subw	r2, r3, #3348
	ldr	r3, [r7, #3316]
	lsls	r3, r3, #2
	add	r3, r3, r2
	str	r1, [r3]	@ float
	.loc 1 938 37 discriminator 2
	add	r3, r7, #3360
	subw	r2, r3, #3348
	ldr	r3, [r7, #3316]
	lsls	r3, r3, #2
	add	r3, r3, r2
	vldr.32	s14, [r3]
	.loc 1 938 51 discriminator 2
	add	r3, r7, #3360
	sub	r3, r3, #3360
	ldr	r3, [r3]
	vldr.32	s13, [r3, #24]
	.loc 1 938 77 discriminator 2
	add	r3, r7, #3360
	sub	r3, r3, #3360
	ldr	r3, [r3]
	add	r3, r3, #4096
	vldr.32	s12, [r3, #592]
	.loc 1 938 100 discriminator 2
	add	r3, r7, #3360
	sub	r3, r3, #3360
	ldr	r3, [r3]
	add	r3, r3, #4096
	vldr.32	s15, [r3, #596]
	.loc 1 938 81 discriminator 2
	vadd.f32	s15, s12, s15
	.loc 1 938 57 discriminator 2
	vmul.f32	s13, s13, s15
	.loc 1 938 104 discriminator 2
	vmov.f32	s12, #2.0e+0
	vdiv.f32	s15, s13, s12
	.loc 1 938 41 discriminator 2
	vsub.f32	s15, s14, s15
	.loc 1 938 26 discriminator 2
	add	r3, r7, #3360
	subw	r2, r3, #3348
	ldr	r3, [r7, #3316]
	lsls	r3, r3, #2
	add	r3, r3, r2
	vstr.32	s15, [r3]
	.loc 1 939 46 discriminator 2
	add	r3, r7, #3360
	subw	r2, r3, #3348
	ldr	r3, [r7, #3316]
	lsls	r3, r3, #2
	add	r3, r3, r2
	ldr	r3, [r3]	@ float
	mov	r0, r3	@ float
	bl	__aeabi_f2d
	mov	r2, r0
	mov	r3, r1
	.loc 1 939 36 discriminator 2
	adr	r1, .L220+8
	ldrd	r0, [r1]
	bl	__aeabi_ddiv
	mov	r2, r0
	mov	r3, r1
	mov	r0, r2
	mov	r1, r3
	bl	__aeabi_d2f
	mov	r1, r0	@ float
	.loc 1 939 26 discriminator 2
	add	r3, r7, #3360
	subw	r2, r3, #3348
	ldr	r3, [r7, #3316]
	lsls	r3, r3, #2
	add	r3, r3, r2
	str	r1, [r3]	@ float
	.loc 1 927 34 discriminator 2
	ldr	r3, [r7, #3328]
	adds	r3, r3, #1
	str	r3, [r7, #3328]
.L205:
	.loc 1 927 26 discriminator 1
	ldr	r3, [r7, #3328]
	cmp	r3, #31
	ble	.L208
.LBE16:
	.loc 1 925 29 discriminator 2
	ldr	r3, [r7, #3332]
	adds	r3, r3, #1
	str	r3, [r7, #3332]
.L204:
	.loc 1 925 22 discriminator 1
	ldr	r3, [r7, #3332]
	cmp	r3, #23
	ble	.L209
.LBE15:
	.loc 1 943 10
	add	r3, r7, #3360
	subw	r3, r3, #3348
	ldr	r3, [r3]	@ float
	addw	r2, r7, #3352
	str	r3, [r2]	@ float
.LBB17:
	.loc 1 944 13
	movs	r3, #1
	str	r3, [r7, #3324]
	.loc 1 944 5
	b	.L210
.L213:
	.loc 1 946 22
	add	r3, r7, #3360
	subw	r2, r3, #3348
	ldr	r3, [r7, #3324]
	lsls	r3, r3, #2
	add	r3, r3, r2
	vldr.32	s15, [r3]
	.loc 1 946 12
	addw	r3, r7, #3352
	vldr.32	s14, [r3]
	vcmpe.f32	s14, s15
	vmrs	APSR_nzcv, FPSCR
	bpl	.L211
	.loc 1 948 18
	add	r3, r7, #3360
	subw	r2, r3, #3348
	ldr	r3, [r7, #3324]
	lsls	r3, r3, #2
	add	r3, r3, r2
	ldr	r3, [r3]	@ float
	addw	r2, r7, #3352
	str	r3, [r2]	@ float
.L211:
	.loc 1 944 30 discriminator 2
	ldr	r3, [r7, #3324]
	adds	r3, r3, #1
	str	r3, [r7, #3324]
.L210:
	.loc 1 944 22 discriminator 1
	ldr	r3, [r7, #3324]
	cmp	r3, #768
	blt	.L213
.LBE17:
	.loc 1 952 16
	movs	r3, #0
	strb	r3, [r7, #3359]
	.loc 1 953 10
	b	.L214
.L215:
	.loc 1 955 14
	addw	r3, r7, #3352
	vldr.32	s15, [r3]
	vadd.f32	s15, s15, s15
	addw	r3, r7, #3352
	vstr.32	s15, [r3]
	.loc 1 956 20
	ldrb	r3, [r7, #3359]
	adds	r3, r3, #1
	strb	r3, [r7, #3359]
.L214:
	.loc 1 953 16
	addw	r3, r7, #3352
	ldr	r0, [r3]	@ float
	bl	__aeabi_f2d
	adr	r3, .L220+16
	ldrd	r2, [r3]
	bl	__aeabi_dcmplt
	mov	r3, r0
	cmp	r3, #0
	bne	.L215
.LBB18:
	.loc 1 959 13
	movs	r3, #0
	str	r3, [r7, #3320]
	.loc 1 959 5
	b	.L216
.L217:
	.loc 1 961 25 discriminator 3
	add	r3, r7, #3360
	subw	r2, r3, #3348
	ldr	r3, [r7, #3320]
	lsls	r3, r3, #2
	add	r3, r3, r2
	ldr	r3, [r3]	@ float
	mov	r0, r3	@ float
	bl	__aeabi_f2d
	mov	r4, r0
	mov	r5, r1
	.loc 1 961 31 discriminator 3
	ldrb	r3, [r7, #3359]	@ zero_extendqisi2
	mov	r0, r3
	bl	__aeabi_ui2d
	mov	r2, r0
	mov	r3, r1
	vmov	d1, r2, r3
	vldr.64	d0, .L220
	bl	pow
	vmov	r2, r3, d0
	.loc 1 961 29 discriminator 3
	mov	r0, r4
	mov	r1, r5
	bl	__aeabi_dmul
	mov	r2, r0
	mov	r3, r1
	.loc 1 961 14 discriminator 3
	mov	r0, r2
	mov	r1, r3
	bl	__aeabi_d2f
	mov	r3, r0	@ float
	addw	r2, r7, #3352
	str	r3, [r2]	@ float
	.loc 1 962 36 discriminator 3
	addw	r3, r7, #3352
	ldr	r0, [r3]	@ float
	bl	__aeabi_f2d
	mov	r2, #0
	ldr	r3, .L220+28
	bl	__aeabi_dadd
	mov	r2, r0
	mov	r3, r1
	.loc 1 962 28 discriminator 3
	mov	r0, r2
	mov	r1, r3
	bl	__aeabi_d2uiz
	mov	r3, r0
	uxth	r1, r3
	add	r3, r7, #3360
	sub	r3, r3, #3360
	ldr	r2, [r3]
	ldr	r3, [r7, #3320]
	adds	r3, r3, #36
	lsls	r3, r3, #1
	add	r3, r3, r2
	mov	r2, r1	@ movhi
	strh	r2, [r3, #2]	@ movhi
	.loc 1 959 30 discriminator 3
	ldr	r3, [r7, #3320]
	adds	r3, r3, #1
	str	r3, [r7, #3320]
.L216:
	.loc 1 959 22 discriminator 1
	ldr	r3, [r7, #3320]
	cmp	r3, #768
	blt	.L217
.LBE18:
	.loc 1 966 26
	add	r3, r7, #3360
	sub	r3, r3, #3360
	ldr	r3, [r3]
	ldrb	r2, [r7, #3359]
	strb	r2, [r3, #1610]
	.loc 1 968 1
	nop
	add	r7, r7, #3360
	.cfi_def_cfa_offset 16
	mov	sp, r7
	.cfi_def_cfa_register 13
	@ sp needed
	pop	{r4, r5, r7, pc}
.L221:
	.align	3
.L220:
	.word	0
	.word	1073741824
	.word	-1598689907
	.word	1051772663
	.word	-1717986918
	.word	1088421849
	.word	1115684864
	.word	1071644672
	.cfi_endproc
.LFE27:
	.size	ExtractAlphaParameters, .-ExtractAlphaParameters
	.section	.text.ExtractOffsetParameters,"ax",%progbits
	.align	1
	.syntax unified
	.thumb
	.thumb_func
	.type	ExtractOffsetParameters, %function
ExtractOffsetParameters:
.LFB28:
	.loc 1 973 1
	.cfi_startproc
	@ args = 0, pretend = 0, frame = 272
	@ frame_needed = 1, uses_anonymous_args = 0
	@ link register save eliminated.
	push	{r7}
	.cfi_def_cfa_offset 4
	.cfi_offset 7, -4
	sub	sp, sp, #276
	.cfi_def_cfa_offset 280
	add	r7, sp, #0
	.cfi_def_cfa_register 7
	add	r3, r7, #272
	sub	r3, r3, #268
	str	r0, [r3]
	add	r3, r7, #272
	sub	r3, r3, #272
	str	r1, [r3]
	.loc 1 976 9
	movs	r3, #0
	str	r3, [r7, #244]
	.loc 1 983 27
	add	r3, r7, #272
	sub	r3, r3, #268
	ldr	r3, [r3]
	adds	r3, r3, #32
	ldrh	r3, [r3]
	.loc 1 983 32
	uxtb	r3, r3
	.loc 1 983 17
	and	r3, r3, #15
	strb	r3, [r7, #243]
	.loc 1 984 30
	add	r3, r7, #272
	sub	r3, r3, #268
	ldr	r3, [r3]
	adds	r3, r3, #32
	ldrh	r3, [r3]
	.loc 1 984 45
	asrs	r3, r3, #4
	uxtb	r3, r3
	.loc 1 984 20
	and	r3, r3, #15
	strb	r3, [r7, #242]
	.loc 1 985 27
	add	r3, r7, #272
	sub	r3, r3, #268
	ldr	r3, [r3]
	adds	r3, r3, #32
	ldrh	r3, [r3]
	.loc 1 985 42
	asrs	r3, r3, #8
	uxtb	r3, r3
	.loc 1 985 17
	and	r3, r3, #15
	strb	r3, [r7, #241]
	.loc 1 986 32
	add	r3, r7, #272
	sub	r3, r3, #268
	ldr	r3, [r3]
	adds	r3, r3, #34
	ldrh	r3, [r3]
	.loc 1 986 15
	strh	r3, [r7, #238]	@ movhi
.LBB19:
	.loc 1 988 13
	movs	r3, #0
	str	r3, [r7, #268]
	.loc 1 988 5
	b	.L223
.L224:
	.loc 1 990 11 discriminator 3
	ldr	r3, [r7, #268]
	lsls	r3, r3, #2
	str	r3, [r7, #244]
	.loc 1 991 37 discriminator 3
	ldr	r3, [r7, #268]
	adds	r3, r3, #18
	.loc 1 991 33 discriminator 3
	lsls	r3, r3, #1
	add	r2, r7, #272
	sub	r2, r2, #268
	ldr	r2, [r2]
	add	r3, r3, r2
	ldrh	r3, [r3]
	.loc 1 991 42 discriminator 3
	and	r2, r3, #15
	.loc 1 991 23 discriminator 3
	ldr	r3, [r7, #244]
	lsls	r3, r3, #2
	add	r3, r3, #272
	add	r3, r3, r7
	str	r2, [r3, #-132]
	.loc 1 992 37 discriminator 3
	ldr	r3, [r7, #268]
	adds	r3, r3, #18
	.loc 1 992 33 discriminator 3
	lsls	r3, r3, #1
	add	r2, r7, #272
	sub	r2, r2, #268
	ldr	r2, [r2]
	add	r3, r3, r2
	ldrh	r3, [r3]
	.loc 1 992 52 discriminator 3
	asrs	r2, r3, #4
	.loc 1 992 18 discriminator 3
	ldr	r3, [r7, #244]
	adds	r3, r3, #1
	.loc 1 992 52 discriminator 3
	and	r2, r2, #15
	.loc 1 992 23 discriminator 3
	lsls	r3, r3, #2
	add	r3, r3, #272
	add	r3, r3, r7
	str	r2, [r3, #-132]
	.loc 1 993 37 discriminator 3
	ldr	r3, [r7, #268]
	adds	r3, r3, #18
	.loc 1 993 33 discriminator 3
	lsls	r3, r3, #1
	add	r2, r7, #272
	sub	r2, r2, #268
	ldr	r2, [r2]
	add	r3, r3, r2
	ldrh	r3, [r3]
	.loc 1 993 52 discriminator 3
	asrs	r2, r3, #8
	.loc 1 993 18 discriminator 3
	ldr	r3, [r7, #244]
	adds	r3, r3, #2
	.loc 1 993 52 discriminator 3
	and	r2, r2, #15
	.loc 1 993 23 discriminator 3
	lsls	r3, r3, #2
	add	r3, r3, #272
	add	r3, r3, r7
	str	r2, [r3, #-132]
	.loc 1 994 37 discriminator 3
	ldr	r3, [r7, #268]
	adds	r3, r3, #18
	.loc 1 994 33 discriminator 3
	lsls	r3, r3, #1
	add	r2, r7, #272
	sub	r2, r2, #268
	ldr	r2, [r2]
	add	r3, r3, r2
	ldrh	r3, [r3]
	.loc 1 994 52 discriminator 3
	lsrs	r3, r3, #12
	uxth	r2, r3
	.loc 1 994 18 discriminator 3
	ldr	r3, [r7, #244]
	adds	r3, r3, #3
	.loc 1 994 23 discriminator 3
	lsls	r3, r3, #2
	add	r3, r3, #272
	add	r3, r3, r7
	str	r2, [r3, #-132]
	.loc 1 988 28 discriminator 3
	ldr	r3, [r7, #268]
	adds	r3, r3, #1
	str	r3, [r7, #268]
.L223:
	.loc 1 988 22 discriminator 1
	ldr	r3, [r7, #268]
	cmp	r3, #5
	ble	.L224
.LBE19:
.LBB20:
	.loc 1 997 13
	movs	r3, #0
	str	r3, [r7, #264]
	.loc 1 997 5
	b	.L225
.L227:
	.loc 1 999 19
	ldr	r3, [r7, #264]
	lsls	r3, r3, #2
	add	r3, r3, #272
	add	r3, r3, r7
	ldr	r3, [r3, #-132]
	.loc 1 999 12
	cmp	r3, #7
	ble	.L226
	.loc 1 1001 31
	ldr	r3, [r7, #264]
	lsls	r3, r3, #2
	add	r3, r3, #272
	add	r3, r3, r7
	ldr	r3, [r3, #-132]
	.loc 1 1001 35
	sub	r2, r3, #16
	.loc 1 1001 23
	ldr	r3, [r7, #264]
	lsls	r3, r3, #2
	add	r3, r3, #272
	add	r3, r3, r7
	str	r2, [r3, #-132]
.L226:
	.loc 1 997 29 discriminator 2
	ldr	r3, [r7, #264]
	adds	r3, r3, #1
	str	r3, [r7, #264]
.L225:
	.loc 1 997 22 discriminator 1
	ldr	r3, [r7, #264]
	cmp	r3, #23
	ble	.L227
.LBE20:
.LBB21:
	.loc 1 1005 13
	movs	r3, #0
	str	r3, [r7, #260]
	.loc 1 1005 5
	b	.L228
.L229:
	.loc 1 1007 11 discriminator 3
	ldr	r3, [r7, #260]
	lsls	r3, r3, #2
	str	r3, [r7, #244]
	.loc 1 1008 40 discriminator 3
	ldr	r3, [r7, #260]
	adds	r3, r3, #24
	.loc 1 1008 36 discriminator 3
	lsls	r3, r3, #1
	add	r2, r7, #272
	sub	r2, r2, #268
	ldr	r2, [r2]
	add	r3, r3, r2
	ldrh	r3, [r3]
	.loc 1 1008 45 discriminator 3
	and	r1, r3, #15
	.loc 1 1008 26 discriminator 3
	add	r3, r7, #272
	sub	r3, r3, #260
	ldr	r2, [r7, #244]
	str	r1, [r3, r2, lsl #2]
	.loc 1 1009 40 discriminator 3
	ldr	r3, [r7, #260]
	adds	r3, r3, #24
	.loc 1 1009 36 discriminator 3
	lsls	r3, r3, #1
	add	r2, r7, #272
	sub	r2, r2, #268
	ldr	r2, [r2]
	add	r3, r3, r2
	ldrh	r3, [r3]
	.loc 1 1009 55 discriminator 3
	asrs	r3, r3, #4
	.loc 1 1009 21 discriminator 3
	ldr	r2, [r7, #244]
	adds	r2, r2, #1
	.loc 1 1009 55 discriminator 3
	and	r1, r3, #15
	.loc 1 1009 26 discriminator 3
	add	r3, r7, #272
	sub	r3, r3, #260
	str	r1, [r3, r2, lsl #2]
	.loc 1 1010 40 discriminator 3
	ldr	r3, [r7, #260]
	adds	r3, r3, #24
	.loc 1 1010 36 discriminator 3
	lsls	r3, r3, #1
	add	r2, r7, #272
	sub	r2, r2, #268
	ldr	r2, [r2]
	add	r3, r3, r2
	ldrh	r3, [r3]
	.loc 1 1010 55 discriminator 3
	asrs	r3, r3, #8
	.loc 1 1010 21 discriminator 3
	ldr	r2, [r7, #244]
	adds	r2, r2, #2
	.loc 1 1010 55 discriminator 3
	and	r1, r3, #15
	.loc 1 1010 26 discriminator 3
	add	r3, r7, #272
	sub	r3, r3, #260
	str	r1, [r3, r2, lsl #2]
	.loc 1 1011 40 discriminator 3
	ldr	r3, [r7, #260]
	adds	r3, r3, #24
	.loc 1 1011 36 discriminator 3
	lsls	r3, r3, #1
	add	r2, r7, #272
	sub	r2, r2, #268
	ldr	r2, [r2]
	add	r3, r3, r2
	ldrh	r3, [r3]
	.loc 1 1011 55 discriminator 3
	lsrs	r3, r3, #12
	uxth	r1, r3
	.loc 1 1011 21 discriminator 3
	ldr	r3, [r7, #244]
	adds	r2, r3, #3
	.loc 1 1011 26 discriminator 3
	add	r3, r7, #272
	sub	r3, r3, #260
	str	r1, [r3, r2, lsl #2]
	.loc 1 1005 28 discriminator 3
	ldr	r3, [r7, #260]
	adds	r3, r3, #1
	str	r3, [r7, #260]
.L228:
	.loc 1 1005 22 discriminator 1
	ldr	r3, [r7, #260]
	cmp	r3, #7
	ble	.L229
.LBE21:
.LBB22:
	.loc 1 1014 13
	movs	r3, #0
	str	r3, [r7, #256]
	.loc 1 1014 5
	b	.L230
.L232:
	.loc 1 1016 22
	add	r3, r7, #272
	sub	r3, r3, #260
	ldr	r2, [r7, #256]
	ldr	r3, [r3, r2, lsl #2]
	.loc 1 1016 12
	cmp	r3, #7
	ble	.L231
	.loc 1 1018 37
	add	r3, r7, #272
	sub	r3, r3, #260
	ldr	r2, [r7, #256]
	ldr	r3, [r3, r2, lsl #2]
	.loc 1 1018 41
	sub	r1, r3, #16
	.loc 1 1018 26
	add	r3, r7, #272
	sub	r3, r3, #260
	ldr	r2, [r7, #256]
	str	r1, [r3, r2, lsl #2]
.L231:
	.loc 1 1014 30 discriminator 2
	ldr	r3, [r7, #256]
	adds	r3, r3, #1
	str	r3, [r7, #256]
.L230:
	.loc 1 1014 22 discriminator 1
	ldr	r3, [r7, #256]
	cmp	r3, #31
	ble	.L232
.LBE22:
.LBB23:
	.loc 1 1022 13
	movs	r3, #0
	str	r3, [r7, #252]
	.loc 1 1022 5
	b	.L233
.L237:
.LBB24:
	.loc 1 1024 17
	movs	r3, #0
	str	r3, [r7, #248]
	.loc 1 1024 9
	b	.L234
.L236:
	.loc 1 1026 20
	ldr	r3, [r7, #252]
	lsls	r3, r3, #5
	.loc 1 1026 15
	ldr	r2, [r7, #248]
	add	r3, r3, r2
	str	r3, [r7, #244]
	.loc 1 1027 46
	ldr	r3, [r7, #244]
	adds	r3, r3, #64
	.loc 1 1027 42
	lsls	r3, r3, #1
	add	r2, r7, #272
	sub	r2, r2, #268
	ldr	r2, [r2]
	add	r3, r3, r2
	ldrh	r3, [r3]
	.loc 1 1027 61
	lsrs	r3, r3, #10
	uxth	r3, r3
	sxth	r1, r3
	.loc 1 1027 33
	add	r3, r7, #272
	sub	r3, r3, #272
	ldr	r2, [r3]
	ldr	r3, [r7, #244]
	add	r3, r3, #804
	lsls	r3, r3, #1
	add	r3, r3, r2
	mov	r2, r1	@ movhi
	strh	r2, [r3, #4]	@ movhi
	.loc 1 1028 33
	add	r3, r7, #272
	sub	r3, r3, #272
	ldr	r2, [r3]
	ldr	r3, [r7, #244]
	add	r3, r3, #804
	lsls	r3, r3, #1
	add	r3, r3, r2
	ldrsh	r3, [r3, #4]
	.loc 1 1028 16
	cmp	r3, #31
	ble	.L235
	.loc 1 1030 55
	add	r3, r7, #272
	sub	r3, r3, #272
	ldr	r2, [r3]
	ldr	r3, [r7, #244]
	add	r3, r3, #804
	lsls	r3, r3, #1
	add	r3, r3, r2
	ldrsh	r3, [r3, #4]
	uxth	r3, r3
	.loc 1 1030 59
	subs	r3, r3, #64
	uxth	r3, r3
	sxth	r1, r3
	.loc 1 1030 37
	add	r3, r7, #272
	sub	r3, r3, #272
	ldr	r2, [r3]
	ldr	r3, [r7, #244]
	add	r3, r3, #804
	lsls	r3, r3, #1
	add	r3, r3, r2
	mov	r2, r1	@ movhi
	strh	r2, [r3, #4]	@ movhi
.L235:
	.loc 1 1032 51 discriminator 2
	add	r3, r7, #272
	sub	r3, r3, #272
	ldr	r2, [r3]
	ldr	r3, [r7, #244]
	add	r3, r3, #804
	lsls	r3, r3, #1
	add	r3, r3, r2
	ldrsh	r3, [r3, #4]
	mov	r2, r3
	.loc 1 1032 54 discriminator 2
	ldrb	r3, [r7, #243]	@ zero_extendqisi2
	lsl	r3, r2, r3
	.loc 1 1032 33 discriminator 2
	sxth	r1, r3
	add	r3, r7, #272
	sub	r3, r3, #272
	ldr	r2, [r3]
	ldr	r3, [r7, #244]
	add	r3, r3, #804
	lsls	r3, r3, #1
	add	r3, r3, r2
	mov	r2, r1	@ movhi
	strh	r2, [r3, #4]	@ movhi
	.loc 1 1033 55 discriminator 2
	ldr	r3, [r7, #252]
	lsls	r3, r3, #2
	add	r3, r3, #272
	add	r3, r3, r7
	ldr	r2, [r3, #-132]
	.loc 1 1033 59 discriminator 2
	ldrb	r3, [r7, #241]	@ zero_extendqisi2
	lsl	r3, r2, r3
	.loc 1 1033 46 discriminator 2
	uxth	r2, r3
	ldrh	r3, [r7, #238]
	add	r3, r3, r2
	uxth	r2, r3
	.loc 1 1033 87 discriminator 2
	add	r3, r7, #272
	sub	r3, r3, #260
	ldr	r1, [r7, #248]
	ldr	r1, [r3, r1, lsl #2]
	.loc 1 1033 91 discriminator 2
	ldrb	r3, [r7, #242]	@ zero_extendqisi2
	lsl	r3, r1, r3
	.loc 1 1033 75 discriminator 2
	uxth	r3, r3
	add	r3, r3, r2
	uxth	r2, r3
	.loc 1 1033 128 discriminator 2
	add	r3, r7, #272
	sub	r3, r3, #272
	ldr	r1, [r3]
	ldr	r3, [r7, #244]
	add	r3, r3, #804
	lsls	r3, r3, #1
	add	r3, r3, r1
	ldrsh	r3, [r3, #4]
	uxth	r3, r3
	.loc 1 1033 110 discriminator 2
	add	r3, r3, r2
	uxth	r3, r3
	sxth	r1, r3
	.loc 1 1033 33 discriminator 2
	add	r3, r7, #272
	sub	r3, r3, #272
	ldr	r2, [r3]
	ldr	r3, [r7, #244]
	add	r3, r3, #804
	lsls	r3, r3, #1
	add	r3, r3, r2
	mov	r2, r1	@ movhi
	strh	r2, [r3, #4]	@ movhi
	.loc 1 1024 34 discriminator 2
	ldr	r3, [r7, #248]
	adds	r3, r3, #1
	str	r3, [r7, #248]
.L234:
	.loc 1 1024 26 discriminator 1
	ldr	r3, [r7, #248]
	cmp	r3, #31
	ble	.L236
.LBE24:
	.loc 1 1022 29 discriminator 2
	ldr	r3, [r7, #252]
	adds	r3, r3, #1
	str	r3, [r7, #252]
.L233:
	.loc 1 1022 22 discriminator 1
	ldr	r3, [r7, #252]
	cmp	r3, #23
	ble	.L237
.LBE23:
	.loc 1 1036 1
	nop
	nop
	add	r7, r7, #276
	.cfi_def_cfa_offset 4
	mov	sp, r7
	.cfi_def_cfa_register 13
	@ sp needed
	ldr	r7, [sp], #4
	.cfi_restore 7
	.cfi_def_cfa_offset 0
	bx	lr
	.cfi_endproc
.LFE28:
	.size	ExtractOffsetParameters, .-ExtractOffsetParameters
	.global	__aeabi_d2iz
	.section	.text.ExtractKtaPixelParameters,"ax",%progbits
	.align	1
	.syntax unified
	.thumb
	.thumb_func
	.type	ExtractKtaPixelParameters, %function
ExtractKtaPixelParameters:
.LFB29:
	.loc 1 1041 1
	.cfi_startproc
	@ args = 0, pretend = 0, frame = 3120
	@ frame_needed = 1, uses_anonymous_args = 0
	push	{r4, r5, r7, lr}
	.cfi_def_cfa_offset 16
	.cfi_offset 4, -16
	.cfi_offset 5, -12
	.cfi_offset 7, -8
	.cfi_offset 14, -4
	sub	sp, sp, #3120
	.cfi_def_cfa_offset 3136
	add	r7, sp, #0
	.cfi_def_cfa_register 7
	add	r3, r7, #3120
	subw	r3, r3, #3116
	str	r0, [r3]
	add	r3, r7, #3120
	sub	r3, r3, #3120
	str	r1, [r3]
	.loc 1 1042 9
	movs	r3, #0
	str	r3, [r7, #3092]
	.loc 1 1050 32
	add	r3, r7, #3120
	subw	r3, r3, #3116
	ldr	r3, [r3]
	adds	r3, r3, #108
	ldrh	r3, [r3]
	.loc 1 1050 47
	lsrs	r3, r3, #8
	uxth	r3, r3
	.loc 1 1050 16
	sxtb	r3, r3
	.loc 1 1050 14
	strb	r3, [r7, #3084]
	.loc 1 1051 31
	add	r3, r7, #3120
	subw	r3, r3, #3116
	ldr	r3, [r3]
	adds	r3, r3, #108
	ldrh	r3, [r3]
	.loc 1 1051 16
	sxtb	r3, r3
	.loc 1 1051 14
	strb	r3, [r7, #3086]
	.loc 1 1052 32
	add	r3, r7, #3120
	subw	r3, r3, #3116
	ldr	r3, [r3]
	adds	r3, r3, #110
	ldrh	r3, [r3]
	.loc 1 1052 47
	lsrs	r3, r3, #8
	uxth	r3, r3
	.loc 1 1052 16
	sxtb	r3, r3
	.loc 1 1052 14
	strb	r3, [r7, #3085]
	.loc 1 1053 31
	add	r3, r7, #3120
	subw	r3, r3, #3116
	ldr	r3, [r3]
	adds	r3, r3, #110
	ldrh	r3, [r3]
	.loc 1 1053 16
	sxtb	r3, r3
	.loc 1 1053 14
	strb	r3, [r7, #3087]
	.loc 1 1055 25
	add	r3, r7, #3120
	subw	r3, r3, #3116
	ldr	r3, [r3]
	adds	r3, r3, #112
	ldrh	r3, [r3]
	.loc 1 1055 40
	asrs	r3, r3, #4
	uxtb	r3, r3
	and	r3, r3, #15
	uxtb	r3, r3
	.loc 1 1055 15
	adds	r3, r3, #8
	strb	r3, [r7, #3119]
	.loc 1 1056 25
	add	r3, r7, #3120
	subw	r3, r3, #3116
	ldr	r3, [r3]
	adds	r3, r3, #112
	ldrh	r3, [r3]
	.loc 1 1056 30
	uxtb	r3, r3
	.loc 1 1056 15
	and	r3, r3, #15
	strb	r3, [r7, #3091]
.LBB25:
	.loc 1 1058 13
	movs	r3, #0
	str	r3, [r7, #3108]
	.loc 1 1058 5
	b	.L239
.L246:
.LBB26:
	.loc 1 1060 17
	movs	r3, #0
	str	r3, [r7, #3104]
	.loc 1 1060 9
	b	.L240
.L245:
	.loc 1 1062 20
	ldr	r3, [r7, #3108]
	lsls	r3, r3, #5
	.loc 1 1062 15
	ldr	r2, [r7, #3104]
	add	r3, r3, r2
	str	r3, [r7, #3092]
	.loc 1 1063 25
	ldr	r3, [r7, #3092]
	cmp	r3, #0
	bge	.L241
	adds	r3, r3, #31
.L241:
	asrs	r3, r3, #5
	mov	r2, r3
	.loc 1 1063 33
	ldr	r3, [r7, #3092]
	cmp	r3, #0
	bge	.L242
	adds	r3, r3, #63
.L242:
	asrs	r3, r3, #6
	.loc 1 1063 37
	lsls	r3, r3, #1
	.loc 1 1063 29
	subs	r3, r2, r3
	.loc 1 1063 41
	uxtb	r3, r3
	lsls	r3, r3, #1
	uxtb	r2, r3
	.loc 1 1063 44
	ldr	r3, [r7, #3092]
	cmp	r3, #0
	and	r3, r3, #1
	it	lt
	rsblt	r3, r3, #0
	.loc 1 1063 41
	uxtb	r3, r3
	.loc 1 1063 19
	add	r3, r3, r2
	strb	r3, [r7, #3090]
	.loc 1 1064 37
	ldr	r3, [r7, #3092]
	adds	r3, r3, #64
	.loc 1 1064 33
	lsls	r3, r3, #1
	add	r2, r7, #3120
	subw	r2, r2, #3116
	ldr	r2, [r2]
	add	r3, r3, r2
	ldrh	r3, [r3]
	.loc 1 1064 52
	asrs	r3, r3, #1
	and	r3, r3, #7
	.loc 1 1064 24
	vmov	s15, r3	@ int
	vcvt.f32.s32	s15, s15
	add	r3, r7, #3120
	subw	r2, r3, #3108
	ldr	r3, [r7, #3092]
	lsls	r3, r3, #2
	add	r3, r3, r2
	vstr.32	s15, [r3]
	.loc 1 1065 24
	add	r3, r7, #3120
	subw	r2, r3, #3108
	ldr	r3, [r7, #3092]
	lsls	r3, r3, #2
	add	r3, r3, r2
	vldr.32	s15, [r3]
	.loc 1 1065 16
	vmov.f32	s14, #3.0e+0
	vcmpe.f32	s15, s14
	vmrs	APSR_nzcv, FPSCR
	ble	.L243
	.loc 1 1067 37
	add	r3, r7, #3120
	subw	r2, r3, #3108
	ldr	r3, [r7, #3092]
	lsls	r3, r3, #2
	add	r3, r3, r2
	vldr.32	s15, [r3]
	.loc 1 1067 41
	vmov.f32	s14, #8.0e+0
	vsub.f32	s15, s15, s14
	.loc 1 1067 28
	add	r3, r7, #3120
	subw	r2, r3, #3108
	ldr	r3, [r7, #3092]
	lsls	r3, r3, #2
	add	r3, r3, r2
	vstr.32	s15, [r3]
.L243:
	.loc 1 1069 33 discriminator 2
	add	r3, r7, #3120
	subw	r2, r3, #3108
	ldr	r3, [r7, #3092]
	lsls	r3, r3, #2
	add	r3, r3, r2
	vldr.32	s14, [r3]
	.loc 1 1069 42 discriminator 2
	ldrb	r3, [r7, #3091]	@ zero_extendqisi2
	movs	r2, #1
	lsl	r3, r2, r3
	.loc 1 1069 37 discriminator 2
	vmov	s15, r3	@ int
	vcvt.f32.s32	s15, s15
	vmul.f32	s15, s14, s15
	.loc 1 1069 24 discriminator 2
	add	r3, r7, #3120
	subw	r2, r3, #3108
	ldr	r3, [r7, #3092]
	lsls	r3, r3, #2
	add	r3, r3, r2
	vstr.32	s15, [r3]
	.loc 1 1070 31 discriminator 2
	ldrb	r3, [r7, #3090]	@ zero_extendqisi2
	add	r3, r3, #3120
	add	r3, r3, r7
	ldrsb	r3, [r3, #-36]
	.loc 1 1070 39 discriminator 2
	vmov	s15, r3	@ int
	vcvt.f32.s32	s14, s15
	.loc 1 1070 48 discriminator 2
	add	r3, r7, #3120
	subw	r2, r3, #3108
	ldr	r3, [r7, #3092]
	lsls	r3, r3, #2
	add	r3, r3, r2
	vldr.32	s15, [r3]
	.loc 1 1070 39 discriminator 2
	vadd.f32	s15, s14, s15
	.loc 1 1070 24 discriminator 2
	add	r3, r7, #3120
	subw	r2, r3, #3108
	ldr	r3, [r7, #3092]
	lsls	r3, r3, #2
	add	r3, r3, r2
	vstr.32	s15, [r3]
	.loc 1 1071 33 discriminator 2
	add	r3, r7, #3120
	subw	r2, r3, #3108
	ldr	r3, [r7, #3092]
	lsls	r3, r3, #2
	add	r3, r3, r2
	ldr	r3, [r3]	@ float
	mov	r0, r3	@ float
	bl	__aeabi_f2d
	mov	r4, r0
	mov	r5, r1
	.loc 1 1071 39 discriminator 2
	ldrb	r3, [r7, #3119]	@ zero_extendqisi2
	mov	r0, r3
	bl	__aeabi_ui2d
	mov	r2, r0
	mov	r3, r1
	vmov	d1, r2, r3
	vldr.64	d0, .L262
	bl	pow
	vmov	r2, r3, d0
	.loc 1 1071 37 discriminator 2
	mov	r0, r4
	mov	r1, r5
	bl	__aeabi_ddiv
	mov	r2, r0
	mov	r3, r1
	mov	r0, r2
	mov	r1, r3
	bl	__aeabi_d2f
	mov	r1, r0	@ float
	.loc 1 1071 24 discriminator 2
	add	r3, r7, #3120
	subw	r2, r3, #3108
	ldr	r3, [r7, #3092]
	lsls	r3, r3, #2
	add	r3, r3, r2
	str	r1, [r3]	@ float
	.loc 1 1060 34 discriminator 2
	ldr	r3, [r7, #3104]
	adds	r3, r3, #1
	str	r3, [r7, #3104]
.L240:
	.loc 1 1060 26 discriminator 1
	ldr	r3, [r7, #3104]
	cmp	r3, #31
	ble	.L245
.LBE26:
	.loc 1 1058 29 discriminator 2
	ldr	r3, [r7, #3108]
	adds	r3, r3, #1
	str	r3, [r7, #3108]
.L239:
	.loc 1 1058 22 discriminator 1
	ldr	r3, [r7, #3108]
	cmp	r3, #23
	ble	.L246
.LBE25:
	.loc 1 1076 24
	add	r3, r7, #3120
	subw	r3, r3, #3108
	vldr.32	s15, [r3]
	.loc 1 1076 10
	vabs.f32	s15, s15
	addw	r3, r7, #3112
	vstr.32	s15, [r3]
.LBB27:
	.loc 1 1077 13
	movs	r3, #1
	str	r3, [r7, #3100]
	.loc 1 1077 5
	b	.L247
.L250:
	.loc 1 1079 25
	add	r3, r7, #3120
	subw	r2, r3, #3108
	ldr	r3, [r7, #3100]
	lsls	r3, r3, #2
	add	r3, r3, r2
	vldr.32	s15, [r3]
	.loc 1 1079 13
	vabs.f32	s15, s15
	.loc 1 1079 12
	addw	r3, r7, #3112
	vldr.32	s14, [r3]
	vcmpe.f32	s14, s15
	vmrs	APSR_nzcv, FPSCR
	bpl	.L248
	.loc 1 1081 32
	add	r3, r7, #3120
	subw	r2, r3, #3108
	ldr	r3, [r7, #3100]
	lsls	r3, r3, #2
	add	r3, r3, r2
	vldr.32	s15, [r3]
	.loc 1 1081 18
	vabs.f32	s15, s15
	addw	r3, r7, #3112
	vstr.32	s15, [r3]
.L248:
	.loc 1 1077 30 discriminator 2
	ldr	r3, [r7, #3100]
	adds	r3, r3, #1
	str	r3, [r7, #3100]
.L247:
	.loc 1 1077 22 discriminator 1
	ldr	r3, [r7, #3100]
	cmp	r3, #768
	blt	.L250
.LBE27:
	.loc 1 1085 15
	movs	r3, #0
	strb	r3, [r7, #3119]
	.loc 1 1086 10
	b	.L251
.L252:
	.loc 1 1088 14
	addw	r3, r7, #3112
	vldr.32	s15, [r3]
	vadd.f32	s15, s15, s15
	addw	r3, r7, #3112
	vstr.32	s15, [r3]
	.loc 1 1089 19
	ldrb	r3, [r7, #3119]
	adds	r3, r3, #1
	strb	r3, [r7, #3119]
.L251:
	.loc 1 1086 16
	addw	r3, r7, #3112
	ldr	r0, [r3]	@ float
	bl	__aeabi_f2d
	adr	r3, .L262+12
	ldrd	r2, [r3]
	bl	__aeabi_dcmplt
	mov	r3, r0
	cmp	r3, #0
	bne	.L252
.LBB28:
	.loc 1 1092 13
	movs	r3, #0
	str	r3, [r7, #3096]
	.loc 1 1092 5
	b	.L253
.L257:
	.loc 1 1094 23
	add	r3, r7, #3120
	subw	r2, r3, #3108
	ldr	r3, [r7, #3096]
	lsls	r3, r3, #2
	add	r3, r3, r2
	ldr	r3, [r3]	@ float
	mov	r0, r3	@ float
	bl	__aeabi_f2d
	mov	r4, r0
	mov	r5, r1
	.loc 1 1094 29
	ldrb	r3, [r7, #3119]	@ zero_extendqisi2
	mov	r0, r3
	bl	__aeabi_ui2d
	mov	r2, r0
	mov	r3, r1
	vmov	d1, r2, r3
	vldr.64	d0, .L262
	bl	pow
	vmov	r2, r3, d0
	.loc 1 1094 27
	mov	r0, r4
	mov	r1, r5
	bl	__aeabi_dmul
	mov	r2, r0
	mov	r3, r1
	.loc 1 1094 14
	mov	r0, r2
	mov	r1, r3
	bl	__aeabi_d2f
	mov	r3, r0	@ float
	addw	r2, r7, #3112
	str	r3, [r2]	@ float
	.loc 1 1095 12
	addw	r3, r7, #3112
	vldr.32	s15, [r3]
	vcmpe.f32	s15, #0
	vmrs	APSR_nzcv, FPSCR
	bpl	.L261
	.loc 1 1097 38
	addw	r3, r7, #3112
	ldr	r0, [r3]	@ float
	bl	__aeabi_f2d
	mov	r2, #0
	ldr	r3, .L262+8
	bl	__aeabi_dsub
	mov	r2, r0
	mov	r3, r1
	.loc 1 1097 30
	mov	r0, r2
	mov	r1, r3
	bl	__aeabi_d2iz
	mov	r3, r0
	sxtb	r1, r3
	add	r3, r7, #3120
	sub	r3, r3, #3120
	ldr	r2, [r3]
	ldr	r3, [r7, #3096]
	add	r3, r3, r2
	addw	r3, r3, #3148
	mov	r2, r1
	strb	r2, [r3]
	b	.L256
.L261:
	.loc 1 1101 38
	addw	r3, r7, #3112
	ldr	r0, [r3]	@ float
	bl	__aeabi_f2d
	mov	r2, #0
	ldr	r3, .L262+8
	bl	__aeabi_dadd
	mov	r2, r0
	mov	r3, r1
	.loc 1 1101 30
	mov	r0, r2
	mov	r1, r3
	bl	__aeabi_d2iz
	mov	r3, r0
	sxtb	r1, r3
	add	r3, r7, #3120
	sub	r3, r3, #3120
	ldr	r2, [r3]
	ldr	r3, [r7, #3096]
	add	r3, r3, r2
	addw	r3, r3, #3148
	mov	r2, r1
	strb	r2, [r3]
.L256:
	.loc 1 1092 30 discriminator 2
	ldr	r3, [r7, #3096]
	adds	r3, r3, #1
	str	r3, [r7, #3096]
.L253:
	.loc 1 1092 22 discriminator 1
	ldr	r3, [r7, #3096]
	cmp	r3, #768
	blt	.L257
.LBE28:
	.loc 1 1106 24
	add	r3, r7, #3120
	sub	r3, r3, #3120
	ldr	r3, [r3]
	ldrb	r2, [r7, #3119]
	strb	r2, [r3, #3916]
	.loc 1 1107 1
	nop
	add	r7, r7, #3120
	.cfi_def_cfa_offset 16
	mov	sp, r7
	.cfi_def_cfa_register 13
	@ sp needed
	pop	{r4, r5, r7, pc}
.L263:
	.align	3
.L262:
	.word	0
	.word	1073741824
	.word	1071644672
	.word	858993459
	.word	1078965043
	.cfi_endproc
.LFE29:
	.size	ExtractKtaPixelParameters, .-ExtractKtaPixelParameters
	.section	.text.ExtractKvPixelParameters,"ax",%progbits
	.align	1
	.syntax unified
	.thumb
	.thumb_func
	.type	ExtractKvPixelParameters, %function
ExtractKvPixelParameters:
.LFB30:
	.loc 1 1113 1
	.cfi_startproc
	@ args = 0, pretend = 0, frame = 3120
	@ frame_needed = 1, uses_anonymous_args = 0
	push	{r4, r5, r7, lr}
	.cfi_def_cfa_offset 16
	.cfi_offset 4, -16
	.cfi_offset 5, -12
	.cfi_offset 7, -8
	.cfi_offset 14, -4
	sub	sp, sp, #3120
	.cfi_def_cfa_offset 3136
	add	r7, sp, #0
	.cfi_def_cfa_register 7
	add	r3, r7, #3120
	subw	r3, r3, #3116
	str	r0, [r3]
	add	r3, r7, #3120
	sub	r3, r3, #3120
	str	r1, [r3]
	.loc 1 1114 9
	movs	r3, #0
	str	r3, [r7, #3088]
	.loc 1 1125 22
	add	r3, r7, #3120
	subw	r3, r3, #3116
	ldr	r3, [r3]
	adds	r3, r3, #104
	ldrh	r3, [r3]
	.loc 1 1125 37
	lsrs	r3, r3, #12
	uxth	r3, r3
	.loc 1 1125 12
	strb	r3, [r7, #3119]
	.loc 1 1126 8
	ldrsb	r3, [r7, #3119]
	cmp	r3, #7
	ble	.L265
	.loc 1 1128 25
	ldrb	r3, [r7, #3119]	@ zero_extendqisi2
	subs	r3, r3, #16
	uxtb	r3, r3
	.loc 1 1128 16
	strb	r3, [r7, #3119]
.L265:
	.loc 1 1130 12
	ldrb	r3, [r7, #3119]
	strb	r3, [r7, #3080]
	.loc 1 1132 22
	add	r3, r7, #3120
	subw	r3, r3, #3116
	ldr	r3, [r3]
	adds	r3, r3, #104
	ldrh	r3, [r3]
	.loc 1 1132 37
	asrs	r3, r3, #8
	sxtb	r3, r3
	.loc 1 1132 12
	and	r3, r3, #15
	strb	r3, [r7, #3117]
	.loc 1 1133 8
	ldrsb	r3, [r7, #3117]
	cmp	r3, #7
	ble	.L266
	.loc 1 1135 25
	ldrb	r3, [r7, #3117]	@ zero_extendqisi2
	subs	r3, r3, #16
	uxtb	r3, r3
	.loc 1 1135 16
	strb	r3, [r7, #3117]
.L266:
	.loc 1 1137 12
	ldrb	r3, [r7, #3117]
	strb	r3, [r7, #3082]
	.loc 1 1139 22
	add	r3, r7, #3120
	subw	r3, r3, #3116
	ldr	r3, [r3]
	adds	r3, r3, #104
	ldrh	r3, [r3]
	.loc 1 1139 37
	asrs	r3, r3, #4
	sxtb	r3, r3
	.loc 1 1139 12
	and	r3, r3, #15
	strb	r3, [r7, #3118]
	.loc 1 1140 8
	ldrsb	r3, [r7, #3118]
	cmp	r3, #7
	ble	.L267
	.loc 1 1142 25
	ldrb	r3, [r7, #3118]	@ zero_extendqisi2
	subs	r3, r3, #16
	uxtb	r3, r3
	.loc 1 1142 16
	strb	r3, [r7, #3118]
.L267:
	.loc 1 1144 12
	ldrb	r3, [r7, #3118]
	strb	r3, [r7, #3081]
	.loc 1 1146 22
	add	r3, r7, #3120
	subw	r3, r3, #3116
	ldr	r3, [r3]
	adds	r3, r3, #104
	ldrh	r3, [r3]
	.loc 1 1146 27
	sxtb	r3, r3
	.loc 1 1146 12
	and	r3, r3, #15
	strb	r3, [r7, #3116]
	.loc 1 1147 8
	ldrsb	r3, [r7, #3116]
	cmp	r3, #7
	ble	.L268
	.loc 1 1149 25
	ldrb	r3, [r7, #3116]	@ zero_extendqisi2
	subs	r3, r3, #16
	uxtb	r3, r3
	.loc 1 1149 16
	strb	r3, [r7, #3116]
.L268:
	.loc 1 1151 12
	ldrb	r3, [r7, #3116]
	strb	r3, [r7, #3083]
	.loc 1 1153 23
	add	r3, r7, #3120
	subw	r3, r3, #3116
	ldr	r3, [r3]
	adds	r3, r3, #112
	ldrh	r3, [r3]
	.loc 1 1153 38
	asrs	r3, r3, #8
	uxtb	r3, r3
	.loc 1 1153 13
	and	r3, r3, #15
	strb	r3, [r7, #3115]
.LBB29:
	.loc 1 1156 13
	movs	r3, #0
	str	r3, [r7, #3104]
	.loc 1 1156 5
	b	.L269
.L274:
.LBB30:
	.loc 1 1158 17
	movs	r3, #0
	str	r3, [r7, #3100]
	.loc 1 1158 9
	b	.L270
.L273:
	.loc 1 1160 20 discriminator 3
	ldr	r3, [r7, #3104]
	lsls	r3, r3, #5
	.loc 1 1160 15 discriminator 3
	ldr	r2, [r7, #3100]
	add	r3, r3, r2
	str	r3, [r7, #3088]
	.loc 1 1161 25 discriminator 3
	ldr	r3, [r7, #3088]
	cmp	r3, #0
	bge	.L271
	adds	r3, r3, #31
.L271:
	asrs	r3, r3, #5
	mov	r2, r3
	.loc 1 1161 33 discriminator 3
	ldr	r3, [r7, #3088]
	cmp	r3, #0
	bge	.L272
	adds	r3, r3, #63
.L272:
	asrs	r3, r3, #6
	.loc 1 1161 37 discriminator 3
	lsls	r3, r3, #1
	.loc 1 1161 29 discriminator 3
	subs	r3, r2, r3
	.loc 1 1161 41 discriminator 3
	uxtb	r3, r3
	lsls	r3, r3, #1
	uxtb	r2, r3
	.loc 1 1161 44 discriminator 3
	ldr	r3, [r7, #3088]
	cmp	r3, #0
	and	r3, r3, #1
	it	lt
	rsblt	r3, r3, #0
	.loc 1 1161 41 discriminator 3
	uxtb	r3, r3
	.loc 1 1161 19 discriminator 3
	add	r3, r3, r2
	strb	r3, [r7, #3087]
	.loc 1 1162 28 discriminator 3
	ldrb	r3, [r7, #3087]	@ zero_extendqisi2
	add	r3, r3, #3120
	add	r3, r3, r7
	ldrsb	r3, [r3, #-40]
	.loc 1 1162 23 discriminator 3
	vmov	s15, r3	@ int
	vcvt.f32.s32	s15, s15
	add	r3, r7, #3120
	subw	r2, r3, #3112
	ldr	r3, [r7, #3088]
	lsls	r3, r3, #2
	add	r3, r3, r2
	vstr.32	s15, [r3]
	.loc 1 1163 31 discriminator 3
	add	r3, r7, #3120
	subw	r2, r3, #3112
	ldr	r3, [r7, #3088]
	lsls	r3, r3, #2
	add	r3, r3, r2
	ldr	r3, [r3]	@ float
	mov	r0, r3	@ float
	bl	__aeabi_f2d
	mov	r4, r0
	mov	r5, r1
	.loc 1 1163 37 discriminator 3
	ldrb	r3, [r7, #3115]	@ zero_extendqisi2
	mov	r0, r3
	bl	__aeabi_ui2d
	mov	r2, r0
	mov	r3, r1
	vmov	d1, r2, r3
	vldr.64	d0, .L289
	bl	pow
	vmov	r2, r3, d0
	.loc 1 1163 35 discriminator 3
	mov	r0, r4
	mov	r1, r5
	bl	__aeabi_ddiv
	mov	r2, r0
	mov	r3, r1
	mov	r0, r2
	mov	r1, r3
	bl	__aeabi_d2f
	mov	r1, r0	@ float
	.loc 1 1163 23 discriminator 3
	add	r3, r7, #3120
	subw	r2, r3, #3112
	ldr	r3, [r7, #3088]
	lsls	r3, r3, #2
	add	r3, r3, r2
	str	r1, [r3]	@ float
	.loc 1 1158 34 discriminator 3
	ldr	r3, [r7, #3100]
	adds	r3, r3, #1
	str	r3, [r7, #3100]
.L270:
	.loc 1 1158 26 discriminator 1
	ldr	r3, [r7, #3100]
	cmp	r3, #31
	ble	.L273
.LBE30:
	.loc 1 1156 29 discriminator 2
	ldr	r3, [r7, #3104]
	adds	r3, r3, #1
	str	r3, [r7, #3104]
.L269:
	.loc 1 1156 22 discriminator 1
	ldr	r3, [r7, #3104]
	cmp	r3, #23
	ble	.L274
.LBE29:
	.loc 1 1167 23
	add	r3, r7, #3120
	subw	r3, r3, #3112
	vldr.32	s15, [r3]
	.loc 1 1167 10
	vabs.f32	s15, s15
	addw	r3, r7, #3108
	vstr.32	s15, [r3]
.LBB31:
	.loc 1 1168 13
	movs	r3, #1
	str	r3, [r7, #3096]
	.loc 1 1168 5
	b	.L275
.L278:
	.loc 1 1170 24
	add	r3, r7, #3120
	subw	r2, r3, #3112
	ldr	r3, [r7, #3096]
	lsls	r3, r3, #2
	add	r3, r3, r2
	vldr.32	s15, [r3]
	.loc 1 1170 13
	vabs.f32	s15, s15
	.loc 1 1170 12
	addw	r3, r7, #3108
	vldr.32	s14, [r3]
	vcmpe.f32	s14, s15
	vmrs	APSR_nzcv, FPSCR
	bpl	.L276
	.loc 1 1172 31
	add	r3, r7, #3120
	subw	r2, r3, #3112
	ldr	r3, [r7, #3096]
	lsls	r3, r3, #2
	add	r3, r3, r2
	vldr.32	s15, [r3]
	.loc 1 1172 18
	vabs.f32	s15, s15
	addw	r3, r7, #3108
	vstr.32	s15, [r3]
.L276:
	.loc 1 1168 30 discriminator 2
	ldr	r3, [r7, #3096]
	adds	r3, r3, #1
	str	r3, [r7, #3096]
.L275:
	.loc 1 1168 22 discriminator 1
	ldr	r3, [r7, #3096]
	cmp	r3, #768
	blt	.L278
.LBE31:
	.loc 1 1176 13
	movs	r3, #0
	strb	r3, [r7, #3115]
	.loc 1 1177 10
	b	.L279
.L280:
	.loc 1 1179 14
	addw	r3, r7, #3108
	vldr.32	s15, [r3]
	vadd.f32	s15, s15, s15
	addw	r3, r7, #3108
	vstr.32	s15, [r3]
	.loc 1 1180 17
	ldrb	r3, [r7, #3115]
	adds	r3, r3, #1
	strb	r3, [r7, #3115]
.L279:
	.loc 1 1177 16
	addw	r3, r7, #3108
	ldr	r0, [r3]	@ float
	bl	__aeabi_f2d
	adr	r3, .L289+12
	ldrd	r2, [r3]
	bl	__aeabi_dcmplt
	mov	r3, r0
	cmp	r3, #0
	bne	.L280
.LBB32:
	.loc 1 1183 13
	movs	r3, #0
	str	r3, [r7, #3092]
	.loc 1 1183 5
	b	.L281
.L285:
	.loc 1 1185 22
	add	r3, r7, #3120
	subw	r2, r3, #3112
	ldr	r3, [r7, #3092]
	lsls	r3, r3, #2
	add	r3, r3, r2
	ldr	r3, [r3]	@ float
	mov	r0, r3	@ float
	bl	__aeabi_f2d
	mov	r4, r0
	mov	r5, r1
	.loc 1 1185 28
	ldrb	r3, [r7, #3115]	@ zero_extendqisi2
	mov	r0, r3
	bl	__aeabi_ui2d
	mov	r2, r0
	mov	r3, r1
	vmov	d1, r2, r3
	vldr.64	d0, .L289
	bl	pow
	vmov	r2, r3, d0
	.loc 1 1185 26
	mov	r0, r4
	mov	r1, r5
	bl	__aeabi_dmul
	mov	r2, r0
	mov	r3, r1
	.loc 1 1185 14
	mov	r0, r2
	mov	r1, r3
	bl	__aeabi_d2f
	mov	r3, r0	@ float
	addw	r2, r7, #3108
	str	r3, [r2]	@ float
	.loc 1 1186 12
	addw	r3, r7, #3108
	vldr.32	s15, [r3]
	vcmpe.f32	s15, #0
	vmrs	APSR_nzcv, FPSCR
	bpl	.L288
	.loc 1 1188 37
	addw	r3, r7, #3108
	ldr	r0, [r3]	@ float
	bl	__aeabi_f2d
	mov	r2, #0
	ldr	r3, .L289+8
	bl	__aeabi_dsub
	mov	r2, r0
	mov	r3, r1
	.loc 1 1188 29
	mov	r0, r2
	mov	r1, r3
	bl	__aeabi_d2iz
	mov	r3, r0
	sxtb	r1, r3
	add	r3, r7, #3120
	sub	r3, r3, #3120
	ldr	r2, [r3]
	ldr	r3, [r7, #3092]
	add	r3, r3, r2
	addw	r3, r3, #3917
	mov	r2, r1
	strb	r2, [r3]
	b	.L284
.L288:
	.loc 1 1192 37
	addw	r3, r7, #3108
	ldr	r0, [r3]	@ float
	bl	__aeabi_f2d
	mov	r2, #0
	ldr	r3, .L289+8
	bl	__aeabi_dadd
	mov	r2, r0
	mov	r3, r1
	.loc 1 1192 29
	mov	r0, r2
	mov	r1, r3
	bl	__aeabi_d2iz
	mov	r3, r0
	sxtb	r1, r3
	add	r3, r7, #3120
	sub	r3, r3, #3120
	ldr	r2, [r3]
	ldr	r3, [r7, #3092]
	add	r3, r3, r2
	addw	r3, r3, #3917
	mov	r2, r1
	strb	r2, [r3]
.L284:
	.loc 1 1183 30 discriminator 2
	ldr	r3, [r7, #3092]
	adds	r3, r3, #1
	str	r3, [r7, #3092]
.L281:
	.loc 1 1183 22 discriminator 1
	ldr	r3, [r7, #3092]
	cmp	r3, #768
	blt	.L285
.LBE32:
	.loc 1 1197 23
	add	r3, r7, #3120
	sub	r3, r3, #3120
	ldr	r3, [r3]
	add	r3, r3, #4096
	mov	r2, r3
	ldrb	r3, [r7, #3115]
	strb	r3, [r2, #589]
	.loc 1 1198 1
	nop
	add	r7, r7, #3120
	.cfi_def_cfa_offset 16
	mov	sp, r7
	.cfi_def_cfa_register 13
	@ sp needed
	pop	{r4, r5, r7, pc}
.L290:
	.align	3
.L289:
	.word	0
	.word	1073741824
	.word	1071644672
	.word	858993459
	.word	1078965043
	.cfi_endproc
.LFE30:
	.size	ExtractKvPixelParameters, .-ExtractKvPixelParameters
	.section	.text.ExtractCPParameters,"ax",%progbits
	.align	1
	.syntax unified
	.thumb
	.thumb_func
	.type	ExtractCPParameters, %function
ExtractCPParameters:
.LFB31:
	.loc 1 1203 1
	.cfi_startproc
	@ args = 0, pretend = 0, frame = 40
	@ frame_needed = 1, uses_anonymous_args = 0
	push	{r4, r5, r7, lr}
	.cfi_def_cfa_offset 16
	.cfi_offset 4, -16
	.cfi_offset 5, -12
	.cfi_offset 7, -8
	.cfi_offset 14, -4
	sub	sp, sp, #40
	.cfi_def_cfa_offset 56
	add	r7, sp, #0
	.cfi_def_cfa_register 7
	str	r0, [r7, #4]
	str	r1, [r7]
	.loc 1 1212 26
	ldr	r3, [r7, #4]
	adds	r3, r3, #64
	ldrh	r3, [r3]
	.loc 1 1212 41
	lsrs	r3, r3, #12
	uxth	r3, r3
	.loc 1 1212 48
	uxtb	r3, r3
	.loc 1 1212 16
	adds	r3, r3, #27
	strb	r3, [r7, #39]
	.loc 1 1214 26
	ldr	r3, [r7, #4]
	adds	r3, r3, #116
	ldrh	r3, [r3]
	sxth	r3, r3
	.loc 1 1214 31
	ubfx	r3, r3, #0, #10
	sxth	r3, r3
	.loc 1 1214 17
	strh	r3, [r7, #8]	@ movhi
	.loc 1 1215 17
	ldrsh	r3, [r7, #8]
	.loc 1 1215 8
	cmp	r3, #512
	blt	.L292
	.loc 1 1217 31
	ldrsh	r3, [r7, #8]
	uxth	r3, r3
	.loc 1 1217 35
	sub	r3, r3, #1024
	uxth	r3, r3
	sxth	r3, r3
	.loc 1 1217 21
	strh	r3, [r7, #8]	@ movhi
.L292:
	.loc 1 1220 26
	ldr	r3, [r7, #4]
	adds	r3, r3, #116
	ldrh	r3, [r3]
	.loc 1 1220 41
	lsrs	r3, r3, #10
	uxth	r3, r3
	sxth	r3, r3
	.loc 1 1220 17
	strh	r3, [r7, #10]	@ movhi
	.loc 1 1221 17
	ldrsh	r3, [r7, #10]
	.loc 1 1221 8
	cmp	r3, #31
	ble	.L293
	.loc 1 1223 31
	ldrsh	r3, [r7, #10]
	uxth	r3, r3
	.loc 1 1223 35
	subs	r3, r3, #64
	uxth	r3, r3
	sxth	r3, r3
	.loc 1 1223 21
	strh	r3, [r7, #10]	@ movhi
.L293:
	.loc 1 1225 27
	ldrsh	r3, [r7, #10]
	uxth	r2, r3
	.loc 1 1225 41
	ldrsh	r3, [r7, #8]
	uxth	r3, r3
	.loc 1 1225 31
	add	r3, r3, r2
	uxth	r3, r3
	sxth	r3, r3
	.loc 1 1225 17
	strh	r3, [r7, #10]	@ movhi
	.loc 1 1227 25
	ldr	r3, [r7, #4]
	adds	r3, r3, #114
	ldrh	r3, [r3]
	.loc 1 1227 30
	ubfx	r3, r3, #0, #10
	.loc 1 1227 16
	vmov	s15, r3	@ int
	vcvt.f32.s32	s15, s15
	vstr.32	s15, [r7, #12]
	.loc 1 1228 16
	vldr.32	s15, [r7, #12]
	.loc 1 1228 8
	vldr.32	s14, .L300+8
	vcmpe.f32	s15, s14
	vmrs	APSR_nzcv, FPSCR
	ble	.L294
	.loc 1 1230 29
	vldr.32	s15, [r7, #12]
	.loc 1 1230 33
	vldr.32	s14, .L300+12
	vsub.f32	s15, s15, s14
	.loc 1 1230 20
	vstr.32	s15, [r7, #12]
.L294:
	.loc 1 1232 25
	ldr	r3, [r7, #12]	@ float
	mov	r0, r3	@ float
	bl	__aeabi_f2d
	mov	r4, r0
	mov	r5, r1
	.loc 1 1232 31
	ldrb	r3, [r7, #39]	@ zero_extendqisi2
	mov	r0, r3
	bl	__aeabi_ui2d
	mov	r2, r0
	mov	r3, r1
	vmov	d1, r2, r3
	vldr.64	d0, .L300
	bl	pow
	vmov	r2, r3, d0
	.loc 1 1232 29
	mov	r0, r4
	mov	r1, r5
	bl	__aeabi_ddiv
	mov	r2, r0
	mov	r3, r1
	mov	r0, r2
	mov	r1, r3
	bl	__aeabi_d2f
	mov	r3, r0	@ float
	.loc 1 1232 16
	str	r3, [r7, #12]	@ float
	.loc 1 1234 25
	ldr	r3, [r7, #4]
	adds	r3, r3, #114
	ldrh	r3, [r3]
	.loc 1 1234 40
	lsrs	r3, r3, #10
	uxth	r3, r3
	vmov	s15, r3	@ int
	.loc 1 1234 16
	vcvt.f32.s32	s15, s15
	vstr.32	s15, [r7, #16]
	.loc 1 1235 16
	vldr.32	s15, [r7, #16]
	.loc 1 1235 8
	vmov.f32	s14, #3.1e+1
	vcmpe.f32	s15, s14
	vmrs	APSR_nzcv, FPSCR
	ble	.L296
	.loc 1 1237 29
	vldr.32	s15, [r7, #16]
	.loc 1 1237 33
	vldr.32	s14, .L300+16
	vsub.f32	s15, s15, s14
	.loc 1 1237 20
	vstr.32	s15, [r7, #16]
.L296:
	.loc 1 1239 30
	vldr.32	s14, [r7, #16]
	.loc 1 1239 33
	vldr.32	s13, .L300+20
	vdiv.f32	s15, s14, s13
	.loc 1 1239 21
	vmov.f32	s14, #1.0e+0
	vadd.f32	s14, s15, s14
	.loc 1 1239 48
	vldr.32	s15, [r7, #12]
	.loc 1 1239 39
	vmul.f32	s15, s14, s15
	.loc 1 1239 16
	vstr.32	s15, [r7, #16]
	.loc 1 1241 28
	ldr	r3, [r7, #4]
	adds	r3, r3, #118
	ldrh	r3, [r3]
	.loc 1 1241 13
	sxtb	r3, r3
	.loc 1 1241 11
	vmov	s15, r3	@ int
	vcvt.f32.s32	s15, s15
	vstr.32	s15, [r7, #32]
	.loc 1 1243 25
	ldr	r3, [r7, #4]
	adds	r3, r3, #112
	ldrh	r3, [r3]
	.loc 1 1243 40
	asrs	r3, r3, #4
	uxtb	r3, r3
	and	r3, r3, #15
	uxtb	r3, r3
	.loc 1 1243 15
	adds	r3, r3, #8
	strb	r3, [r7, #31]
	.loc 1 1244 29
	ldr	r0, [r7, #32]	@ float
	bl	__aeabi_f2d
	mov	r4, r0
	mov	r5, r1
	.loc 1 1244 31
	ldrb	r3, [r7, #31]	@ zero_extendqisi2
	mov	r0, r3
	bl	__aeabi_ui2d
	mov	r2, r0
	mov	r3, r1
	vmov	d1, r2, r3
	vldr.64	d0, .L300
	bl	pow
	vmov	r2, r3, d0
	.loc 1 1244 29
	mov	r0, r4
	mov	r1, r5
	bl	__aeabi_ddiv
	mov	r2, r0
	mov	r3, r1
	mov	r0, r2
	mov	r1, r3
	bl	__aeabi_d2f
	mov	r2, r0	@ float
	.loc 1 1244 21
	ldr	r3, [r7]
	str	r2, [r3, #32]	@ float
	.loc 1 1246 28
	ldr	r3, [r7, #4]
	adds	r3, r3, #118
	ldrh	r3, [r3]
	.loc 1 1246 43
	lsrs	r3, r3, #8
	uxth	r3, r3
	.loc 1 1246 12
	sxtb	r3, r3
	.loc 1 1246 10
	vmov	s15, r3	@ int
	vcvt.f32.s32	s15, s15
	vstr.32	s15, [r7, #24]
	.loc 1 1248 23
	ldr	r3, [r7, #4]
	adds	r3, r3, #112
	ldrh	r3, [r3]
	.loc 1 1248 38
	asrs	r3, r3, #8
	uxtb	r3, r3
	.loc 1 1248 13
	and	r3, r3, #15
	strb	r3, [r7, #23]
	.loc 1 1249 27
	ldr	r0, [r7, #24]	@ float
	bl	__aeabi_f2d
	mov	r4, r0
	mov	r5, r1
	.loc 1 1249 29
	ldrb	r3, [r7, #23]	@ zero_extendqisi2
	mov	r0, r3
	bl	__aeabi_ui2d
	mov	r2, r0
	mov	r3, r1
	vmov	d1, r2, r3
	vldr.64	d0, .L300
	bl	pow
	vmov	r2, r3, d0
	.loc 1 1249 27
	mov	r0, r4
	mov	r1, r5
	bl	__aeabi_ddiv
	mov	r2, r0
	mov	r3, r1
	mov	r0, r2
	mov	r1, r3
	bl	__aeabi_d2f
	mov	r2, r0	@ float
	.loc 1 1249 20
	ldr	r3, [r7]
	str	r2, [r3, #28]	@ float
	.loc 1 1251 35
	ldr	r3, [r7, #12]	@ float
	.loc 1 1251 26
	ldr	r2, [r7]
	add	r2, r2, #4096
	str	r3, [r2, #592]	@ float
	.loc 1 1252 35
	ldr	r3, [r7, #16]	@ float
	.loc 1 1252 26
	ldr	r2, [r7]
	add	r2, r2, #4096
	str	r3, [r2, #596]	@ float
	.loc 1 1253 37
	ldrsh	r2, [r7, #8]
	.loc 1 1253 27
	ldr	r3, [r7]
	add	r3, r3, #4096
	strh	r2, [r3, #600]	@ movhi
	.loc 1 1254 37
	ldrsh	r2, [r7, #10]
	.loc 1 1254 27
	ldr	r3, [r7]
	add	r3, r3, #4096
	strh	r2, [r3, #602]	@ movhi
	.loc 1 1255 1
	nop
	adds	r7, r7, #40
	.cfi_def_cfa_offset 16
	mov	sp, r7
	.cfi_def_cfa_register 13
	@ sp needed
	pop	{r4, r5, r7, pc}
.L301:
	.align	3
.L300:
	.word	0
	.word	1073741824
	.word	1140817920
	.word	1149239296
	.word	1115684864
	.word	1124073472
	.cfi_endproc
.LFE31:
	.size	ExtractCPParameters, .-ExtractCPParameters
	.section	.text.ExtractCILCParameters,"ax",%progbits
	.align	1
	.syntax unified
	.thumb
	.thumb_func
	.type	ExtractCILCParameters, %function
ExtractCILCParameters:
.LFB32:
	.loc 1 1260 1
	.cfi_startproc
	@ args = 0, pretend = 0, frame = 24
	@ frame_needed = 1, uses_anonymous_args = 0
	@ link register save eliminated.
	push	{r7}
	.cfi_def_cfa_offset 4
	.cfi_offset 7, -4
	sub	sp, sp, #28
	.cfi_def_cfa_offset 32
	add	r7, sp, #0
	.cfi_def_cfa_register 7
	str	r0, [r7, #4]
	str	r1, [r7]
	.loc 1 1264 32
	ldr	r3, [r7, #4]
	adds	r3, r3, #20
	ldrh	r3, [r3]
	.loc 1 1264 47
	asrs	r3, r3, #4
	uxtb	r3, r3
	.loc 1 1264 23
	bic	r3, r3, #127
	strb	r3, [r7, #23]
	.loc 1 1265 23
	ldrb	r3, [r7, #23]
	eor	r3, r3, #127
	mvns	r3, r3
	strb	r3, [r7, #23]
	.loc 1 1267 26
	ldr	r3, [r7, #4]
	adds	r3, r3, #106
	ldrh	r3, [r3]
	.loc 1 1267 31
	and	r3, r3, #63
	.loc 1 1267 17
	vmov	s15, r3	@ int
	vcvt.f32.s32	s15, s15
	vstr.32	s15, [r7, #8]
	.loc 1 1268 17
	vldr.32	s15, [r7, #8]
	.loc 1 1268 8
	vmov.f32	s14, #3.1e+1
	vcmpe.f32	s15, s14
	vmrs	APSR_nzcv, FPSCR
	ble	.L303
	.loc 1 1270 31
	vldr.32	s15, [r7, #8]
	.loc 1 1270 35
	vldr.32	s14, .L312
	vsub.f32	s15, s15, s14
	.loc 1 1270 21
	vstr.32	s15, [r7, #8]
.L303:
	.loc 1 1272 27
	vldr.32	s14, [r7, #8]
	.loc 1 1272 31
	vmov.f32	s13, #1.6e+1
	vdiv.f32	s15, s14, s13
	.loc 1 1272 17
	vstr.32	s15, [r7, #8]
	.loc 1 1274 26
	ldr	r3, [r7, #4]
	adds	r3, r3, #106
	ldrh	r3, [r3]
	.loc 1 1274 41
	asrs	r3, r3, #6
	and	r3, r3, #31
	.loc 1 1274 17
	vmov	s15, r3	@ int
	vcvt.f32.s32	s15, s15
	vstr.32	s15, [r7, #12]
	.loc 1 1275 17
	vldr.32	s15, [r7, #12]
	.loc 1 1275 8
	vmov.f32	s14, #1.5e+1
	vcmpe.f32	s15, s14
	vmrs	APSR_nzcv, FPSCR
	ble	.L305
	.loc 1 1277 31
	vldr.32	s15, [r7, #12]
	.loc 1 1277 35
	vldr.32	s14, .L312+4
	vsub.f32	s15, s15, s14
	.loc 1 1277 21
	vstr.32	s15, [r7, #12]
.L305:
	.loc 1 1279 27
	vldr.32	s14, [r7, #12]
	.loc 1 1279 31
	vmov.f32	s13, #2.0e+0
	vdiv.f32	s15, s14, s13
	.loc 1 1279 17
	vstr.32	s15, [r7, #12]
	.loc 1 1281 26
	ldr	r3, [r7, #4]
	adds	r3, r3, #106
	ldrh	r3, [r3]
	.loc 1 1281 41
	lsrs	r3, r3, #11
	uxth	r3, r3
	vmov	s15, r3	@ int
	.loc 1 1281 17
	vcvt.f32.s32	s15, s15
	vstr.32	s15, [r7, #16]
	.loc 1 1282 17
	vldr.32	s15, [r7, #16]
	.loc 1 1282 8
	vmov.f32	s14, #1.5e+1
	vcmpe.f32	s15, s14
	vmrs	APSR_nzcv, FPSCR
	ble	.L307
	.loc 1 1284 31
	vldr.32	s15, [r7, #16]
	.loc 1 1284 35
	vldr.32	s14, .L312+4
	vsub.f32	s15, s15, s14
	.loc 1 1284 21
	vstr.32	s15, [r7, #16]
.L307:
	.loc 1 1286 27
	vldr.32	s14, [r7, #16]
	.loc 1 1286 31
	vmov.f32	s13, #8.0e+0
	vdiv.f32	s15, s14, s13
	.loc 1 1286 17
	vstr.32	s15, [r7, #16]
	.loc 1 1288 33
	ldr	r3, [r7]
	ldrb	r2, [r7, #23]
	strb	r2, [r3, #37]
	.loc 1 1289 37
	ldr	r3, [r7, #8]	@ float
	.loc 1 1289 27
	ldr	r2, [r7]
	add	r2, r2, #4096
	str	r3, [r2, #604]	@ float
	.loc 1 1290 37
	ldr	r3, [r7, #12]	@ float
	.loc 1 1290 27
	ldr	r2, [r7]
	add	r2, r2, #4096
	str	r3, [r2, #608]	@ float
	.loc 1 1291 37
	ldr	r3, [r7, #16]	@ float
	.loc 1 1291 27
	ldr	r2, [r7]
	add	r2, r2, #4096
	str	r3, [r2, #612]	@ float
	.loc 1 1292 1
	nop
	adds	r7, r7, #28
	.cfi_def_cfa_offset 4
	mov	sp, r7
	.cfi_def_cfa_register 13
	@ sp needed
	ldr	r7, [sp], #4
	.cfi_restore 7
	.cfi_def_cfa_offset 0
	bx	lr
.L313:
	.align	2
.L312:
	.word	1115684864
	.word	1107296256
	.cfi_endproc
.LFE32:
	.size	ExtractCILCParameters, .-ExtractCILCParameters
	.section	.text.ExtractDeviatingPixels,"ax",%progbits
	.align	1
	.syntax unified
	.thumb
	.thumb_func
	.type	ExtractDeviatingPixels, %function
ExtractDeviatingPixels:
.LFB33:
	.loc 1 1297 1
	.cfi_startproc
	@ args = 0, pretend = 0, frame = 24
	@ frame_needed = 1, uses_anonymous_args = 0
	push	{r7, lr}
	.cfi_def_cfa_offset 8
	.cfi_offset 7, -8
	.cfi_offset 14, -4
	sub	sp, sp, #24
	.cfi_def_cfa_offset 32
	add	r7, sp, #0
	.cfi_def_cfa_register 7
	str	r0, [r7, #4]
	str	r1, [r7]
	.loc 1 1298 14
	movs	r3, #0
	strh	r3, [r7, #22]	@ movhi
	.loc 1 1299 14
	movs	r3, #0
	strh	r3, [r7, #20]	@ movhi
	.loc 1 1300 14
	movs	r3, #0
	strh	r3, [r7, #18]	@ movhi
	.loc 1 1301 9
	movs	r3, #0
	str	r3, [r7, #12]
	.loc 1 1304 16
	movs	r3, #0
	strh	r3, [r7, #22]	@ movhi
	.loc 1 1304 5
	b	.L315
.L316:
	.loc 1 1306 31 discriminator 3
	ldrh	r2, [r7, #22]
	.loc 1 1306 40 discriminator 3
	ldr	r3, [r7]
	addw	r2, r2, #2356
	movw	r1, #65535
	strh	r1, [r3, r2, lsl #1]	@ movhi
	.loc 1 1307 32 discriminator 3
	ldrh	r3, [r7, #22]
	.loc 1 1307 41 discriminator 3
	ldr	r2, [r7]
	addw	r3, r3, #2360
	lsls	r3, r3, #1
	add	r3, r3, r2
	movw	r2, #65535
	strh	r2, [r3, #2]	@ movhi
	.loc 1 1304 37 discriminator 3
	ldrh	r3, [r7, #22]
	adds	r3, r3, #1
	strh	r3, [r7, #22]	@ movhi
.L315:
	.loc 1 1304 27 discriminator 1
	ldrh	r3, [r7, #22]
	cmp	r3, #4
	bls	.L316
	.loc 1 1310 12
	movs	r3, #0
	strh	r3, [r7, #22]	@ movhi
	.loc 1 1311 11
	b	.L317
.L321:
	.loc 1 1313 18
	ldrh	r3, [r7, #22]
	adds	r3, r3, #64
	lsls	r3, r3, #1
	ldr	r2, [r7, #4]
	add	r3, r3, r2
	ldrh	r3, [r3]
	.loc 1 1313 11
	cmp	r3, #0
	bne	.L318
	.loc 1 1315 35
	ldrh	r2, [r7, #20]
	.loc 1 1315 50
	ldr	r3, [r7]
	addw	r2, r2, #2356
	ldrh	r1, [r7, #22]	@ movhi
	strh	r1, [r3, r2, lsl #1]	@ movhi
	.loc 1 1316 26
	ldrh	r3, [r7, #20]	@ movhi
	adds	r3, r3, #1
	strh	r3, [r7, #20]	@ movhi
	b	.L319
.L318:
	.loc 1 1318 24
	ldrh	r3, [r7, #22]
	adds	r3, r3, #64
	lsls	r3, r3, #1
	ldr	r2, [r7, #4]
	add	r3, r3, r2
	ldrh	r3, [r3]
	.loc 1 1318 36
	and	r3, r3, #1
	.loc 1 1318 16
	cmp	r3, #0
	beq	.L319
	.loc 1 1320 36
	ldrh	r3, [r7, #18]
	.loc 1 1320 52
	ldr	r2, [r7]
	addw	r3, r3, #2360
	lsls	r3, r3, #1
	add	r3, r3, r2
	ldrh	r2, [r7, #22]	@ movhi
	strh	r2, [r3, #2]	@ movhi
	.loc 1 1321 27
	ldrh	r3, [r7, #18]	@ movhi
	adds	r3, r3, #1
	strh	r3, [r7, #18]	@ movhi
.L319:
	.loc 1 1324 16
	ldrh	r3, [r7, #22]	@ movhi
	adds	r3, r3, #1
	strh	r3, [r7, #22]	@ movhi
.L317:
	.loc 1 1311 45
	ldrh	r3, [r7, #22]
	cmp	r3, #768
	bcs	.L320
	.loc 1 1311 25 discriminator 1
	ldrh	r3, [r7, #20]
	cmp	r3, #4
	bhi	.L320
	.loc 1 1311 45 discriminator 2
	ldrh	r3, [r7, #18]
	cmp	r3, #4
	bls	.L321
.L320:
	.loc 1 1328 7
	ldrh	r3, [r7, #20]
	cmp	r3, #4
	bls	.L322
	.loc 1 1330 14
	mvn	r3, #2
	str	r3, [r7, #12]
	b	.L323
.L322:
	.loc 1 1332 12
	ldrh	r3, [r7, #18]
	cmp	r3, #4
	bls	.L324
	.loc 1 1334 14
	mvn	r3, #3
	str	r3, [r7, #12]
	b	.L323
.L324:
	.loc 1 1336 27
	ldrh	r2, [r7, #20]
	ldrh	r3, [r7, #18]
	add	r3, r3, r2
	.loc 1 1336 12
	cmp	r3, #4
	ble	.L325
	.loc 1 1338 14
	mvn	r3, #4
	str	r3, [r7, #12]
	b	.L323
.L325:
	.loc 1 1342 19
	movs	r3, #0
	strh	r3, [r7, #22]	@ movhi
	.loc 1 1342 9
	b	.L326
.L331:
	.loc 1 1344 25
	ldrh	r3, [r7, #22]
	.loc 1 1344 18
	adds	r3, r3, #1
	str	r3, [r7, #8]
	.loc 1 1344 13
	b	.L327
.L330:
	.loc 1 1346 24
	ldrh	r2, [r7, #22]
	ldr	r3, [r7]
	addw	r2, r2, #2356
	ldrh	r0, [r3, r2, lsl #1]
	ldr	r3, [r7]
	ldr	r2, [r7, #8]
	addw	r2, r2, #2356
	ldrh	r3, [r3, r2, lsl #1]
	mov	r1, r3
	bl	CheckAdjacentPixels
	str	r0, [r7, #12]
	.loc 1 1347 19
	ldr	r3, [r7, #12]
	cmp	r3, #0
	beq	.L328
	.loc 1 1349 28
	ldr	r3, [r7, #12]
	b	.L329
.L328:
	.loc 1 1344 46 discriminator 2
	ldr	r3, [r7, #8]
	adds	r3, r3, #1
	str	r3, [r7, #8]
.L327:
	.loc 1 1344 30 discriminator 1
	ldrh	r3, [r7, #20]
	ldr	r2, [r7, #8]
	cmp	r2, r3
	blt	.L330
	.loc 1 1342 50 discriminator 2
	ldrh	r3, [r7, #22]
	adds	r3, r3, #1
	strh	r3, [r7, #22]	@ movhi
.L326:
	.loc 1 1342 29 discriminator 1
	ldrh	r2, [r7, #22]
	ldrh	r3, [r7, #20]
	cmp	r2, r3
	bcc	.L331
	.loc 1 1354 19
	movs	r3, #0
	strh	r3, [r7, #22]	@ movhi
	.loc 1 1354 9
	b	.L332
.L336:
	.loc 1 1356 25
	ldrh	r3, [r7, #22]
	.loc 1 1356 18
	adds	r3, r3, #1
	str	r3, [r7, #8]
	.loc 1 1356 13
	b	.L333
.L335:
	.loc 1 1358 24
	ldrh	r3, [r7, #22]
	ldr	r2, [r7]
	addw	r3, r3, #2360
	lsls	r3, r3, #1
	add	r3, r3, r2
	ldrh	r0, [r3, #2]
	ldr	r2, [r7]
	ldr	r3, [r7, #8]
	addw	r3, r3, #2360
	lsls	r3, r3, #1
	add	r3, r3, r2
	ldrh	r3, [r3, #2]
	mov	r1, r3
	bl	CheckAdjacentPixels
	str	r0, [r7, #12]
	.loc 1 1359 19
	ldr	r3, [r7, #12]
	cmp	r3, #0
	beq	.L334
	.loc 1 1361 28
	ldr	r3, [r7, #12]
	b	.L329
.L334:
	.loc 1 1356 47 discriminator 2
	ldr	r3, [r7, #8]
	adds	r3, r3, #1
	str	r3, [r7, #8]
.L333:
	.loc 1 1356 30 discriminator 1
	ldrh	r3, [r7, #18]
	ldr	r2, [r7, #8]
	cmp	r2, r3
	blt	.L335
	.loc 1 1354 51 discriminator 2
	ldrh	r3, [r7, #22]
	adds	r3, r3, #1
	strh	r3, [r7, #22]	@ movhi
.L332:
	.loc 1 1354 29 discriminator 1
	ldrh	r2, [r7, #22]
	ldrh	r3, [r7, #18]
	cmp	r2, r3
	bcc	.L336
	.loc 1 1366 19
	movs	r3, #0
	strh	r3, [r7, #22]	@ movhi
	.loc 1 1366 9
	b	.L337
.L341:
	.loc 1 1368 18
	movs	r3, #0
	str	r3, [r7, #8]
	.loc 1 1368 13
	b	.L338
.L340:
	.loc 1 1370 24
	ldrh	r2, [r7, #22]
	ldr	r3, [r7]
	addw	r2, r2, #2356
	ldrh	r0, [r3, r2, lsl #1]
	ldr	r2, [r7]
	ldr	r3, [r7, #8]
	addw	r3, r3, #2360
	lsls	r3, r3, #1
	add	r3, r3, r2
	ldrh	r3, [r3, #2]
	mov	r1, r3
	bl	CheckAdjacentPixels
	str	r0, [r7, #12]
	.loc 1 1371 19
	ldr	r3, [r7, #12]
	cmp	r3, #0
	beq	.L339
	.loc 1 1373 28
	ldr	r3, [r7, #12]
	b	.L329
.L339:
	.loc 1 1368 40 discriminator 2
	ldr	r3, [r7, #8]
	adds	r3, r3, #1
	str	r3, [r7, #8]
.L338:
	.loc 1 1368 23 discriminator 1
	ldrh	r3, [r7, #18]
	ldr	r2, [r7, #8]
	cmp	r2, r3
	blt	.L340
	.loc 1 1366 50 discriminator 2
	ldrh	r3, [r7, #22]
	adds	r3, r3, #1
	strh	r3, [r7, #22]	@ movhi
.L337:
	.loc 1 1366 29 discriminator 1
	ldrh	r2, [r7, #22]
	ldrh	r3, [r7, #20]
	cmp	r2, r3
	bcc	.L341
.L323:
	.loc 1 1381 12
	ldr	r3, [r7, #12]
.L329:
	.loc 1 1383 1
	mov	r0, r3
	adds	r7, r7, #24
	.cfi_def_cfa_offset 8
	mov	sp, r7
	.cfi_def_cfa_register 13
	@ sp needed
	pop	{r7, pc}
	.cfi_endproc
.LFE33:
	.size	ExtractDeviatingPixels, .-ExtractDeviatingPixels
	.section	.text.CheckAdjacentPixels,"ax",%progbits
	.align	1
	.syntax unified
	.thumb
	.thumb_func
	.type	CheckAdjacentPixels, %function
CheckAdjacentPixels:
.LFB34:
	.loc 1 1388 2
	.cfi_startproc
	@ args = 0, pretend = 0, frame = 16
	@ frame_needed = 1, uses_anonymous_args = 0
	@ link register save eliminated.
	push	{r7}
	.cfi_def_cfa_offset 4
	.cfi_offset 7, -4
	sub	sp, sp, #20
	.cfi_def_cfa_offset 24
	add	r7, sp, #0
	.cfi_def_cfa_register 7
	mov	r3, r0
	mov	r2, r1
	strh	r3, [r7, #6]	@ movhi
	mov	r3, r2	@ movhi
	strh	r3, [r7, #4]	@ movhi
	.loc 1 1391 23
	ldrh	r2, [r7, #6]
	ldrh	r3, [r7, #4]
	.loc 1 1391 16
	subs	r3, r2, r3
	str	r3, [r7, #12]
	.loc 1 1392 8
	ldr	r3, [r7, #12]
	cmn	r3, #33
	blt	.L343
	.loc 1 1392 25 discriminator 1
	ldr	r3, [r7, #12]
	cmn	r3, #30
	bge	.L343
	.loc 1 1394 17
	mvn	r3, #5
	b	.L344
.L343:
	.loc 1 1396 8
	ldr	r3, [r7, #12]
	cmp	r3, #-1
	blt	.L345
	.loc 1 1396 24 discriminator 1
	ldr	r3, [r7, #12]
	cmp	r3, #1
	bgt	.L345
	.loc 1 1398 17
	mvn	r3, #5
	b	.L344
.L345:
	.loc 1 1400 8
	ldr	r3, [r7, #12]
	cmp	r3, #30
	ble	.L346
	.loc 1 1400 24 discriminator 1
	ldr	r3, [r7, #12]
	cmp	r3, #33
	bgt	.L346
	.loc 1 1402 17
	mvn	r3, #5
	b	.L344
.L346:
	.loc 1 1405 13
	movs	r3, #0
.L344:
	.loc 1 1406 2
	mov	r0, r3
	adds	r7, r7, #20
	.cfi_def_cfa_offset 4
	mov	sp, r7
	.cfi_def_cfa_register 13
	@ sp needed
	ldr	r7, [sp], #4
	.cfi_restore 7
	.cfi_def_cfa_offset 0
	bx	lr
	.cfi_endproc
.LFE34:
	.size	CheckAdjacentPixels, .-CheckAdjacentPixels
	.section	.text.GetMedian,"ax",%progbits
	.align	1
	.syntax unified
	.thumb
	.thumb_func
	.type	GetMedian, %function
GetMedian:
.LFB35:
	.loc 1 1411 2
	.cfi_startproc
	@ args = 0, pretend = 0, frame = 24
	@ frame_needed = 1, uses_anonymous_args = 0
	@ link register save eliminated.
	push	{r7}
	.cfi_def_cfa_offset 4
	.cfi_offset 7, -4
	sub	sp, sp, #28
	.cfi_def_cfa_offset 32
	add	r7, sp, #0
	.cfi_def_cfa_register 7
	str	r0, [r7, #4]
	str	r1, [r7]
.LBB33:
	.loc 1 1414 13
	movs	r3, #0
	str	r3, [r7, #20]
	.loc 1 1414 5
	b	.L348
.L353:
.LBB34:
	.loc 1 1416 17
	ldr	r3, [r7, #20]
	adds	r3, r3, #1
	str	r3, [r7, #16]
	.loc 1 1416 9
	b	.L349
.L352:
	.loc 1 1418 22
	ldr	r3, [r7, #16]
	lsls	r3, r3, #2
	ldr	r2, [r7, #4]
	add	r3, r3, r2
	vldr.32	s14, [r3]
	.loc 1 1418 34
	ldr	r3, [r7, #20]
	lsls	r3, r3, #2
	ldr	r2, [r7, #4]
	add	r3, r3, r2
	vldr.32	s15, [r3]
	.loc 1 1418 15
	vcmpe.f32	s14, s15
	vmrs	APSR_nzcv, FPSCR
	bpl	.L350
	.loc 1 1420 30
	ldr	r3, [r7, #20]
	lsls	r3, r3, #2
	ldr	r2, [r7, #4]
	add	r3, r3, r2
	.loc 1 1420 22
	ldr	r3, [r3]	@ float
	str	r3, [r7, #12]	@ float
	.loc 1 1421 35
	ldr	r3, [r7, #16]
	lsls	r3, r3, #2
	ldr	r2, [r7, #4]
	add	r2, r2, r3
	.loc 1 1421 23
	ldr	r3, [r7, #20]
	lsls	r3, r3, #2
	ldr	r1, [r7, #4]
	add	r3, r3, r1
	.loc 1 1421 35
	ldr	r2, [r2]	@ float
	.loc 1 1421 27
	str	r2, [r3]	@ float
	.loc 1 1422 23
	ldr	r3, [r7, #16]
	lsls	r3, r3, #2
	ldr	r2, [r7, #4]
	add	r3, r3, r2
	.loc 1 1422 27
	ldr	r2, [r7, #12]	@ float
	str	r2, [r3]	@ float
.L350:
	.loc 1 1416 30 discriminator 2
	ldr	r3, [r7, #16]
	adds	r3, r3, #1
	str	r3, [r7, #16]
.L349:
	.loc 1 1416 25 discriminator 1
	ldr	r2, [r7, #16]
	ldr	r3, [r7]
	cmp	r2, r3
	blt	.L352
.LBE34:
	.loc 1 1414 26 discriminator 2
	ldr	r3, [r7, #20]
	adds	r3, r3, #1
	str	r3, [r7, #20]
.L348:
	.loc 1 1414 21 discriminator 1
	ldr	r3, [r7]
	subs	r3, r3, #1
	.loc 1 1414 19 discriminator 1
	ldr	r2, [r7, #20]
	cmp	r2, r3
	blt	.L353
.LBE33:
	.loc 1 1427 11
	ldr	r3, [r7]
	and	r3, r3, #1
	.loc 1 1427 7
	cmp	r3, #0
	bne	.L354
	.loc 1 1429 26
	ldr	r3, [r7]
	lsrs	r2, r3, #31
	add	r3, r3, r2
	asrs	r3, r3, #1
	.loc 1 1429 24
	lsls	r3, r3, #2
	ldr	r2, [r7, #4]
	add	r3, r3, r2
	vldr.32	s14, [r3]
	.loc 1 1429 40
	ldr	r3, [r7]
	lsrs	r2, r3, #31
	add	r3, r3, r2
	asrs	r3, r3, #1
	.loc 1 1429 38
	add	r3, r3, #1073741824
	subs	r3, r3, #1
	lsls	r3, r3, #2
	ldr	r2, [r7, #4]
	add	r3, r3, r2
	vldr.32	s15, [r3]
	.loc 1 1429 30
	vadd.f32	s14, s14, s15
	.loc 1 1429 49
	vmov.f32	s13, #2.0e+0
	vdiv.f32	s15, s14, s13
	b	.L355
.L354:
	.loc 1 1434 24
	ldr	r3, [r7]
	lsrs	r2, r3, #31
	add	r3, r3, r2
	asrs	r3, r3, #1
	.loc 1 1434 22
	lsls	r3, r3, #2
	ldr	r2, [r7, #4]
	add	r3, r3, r2
	vldr.32	s15, [r3]
.L355:
	.loc 1 1437 2
	vmov.f32	s0, s15
	adds	r7, r7, #28
	.cfi_def_cfa_offset 4
	mov	sp, r7
	.cfi_def_cfa_register 13
	@ sp needed
	ldr	r7, [sp], #4
	.cfi_restore 7
	.cfi_def_cfa_offset 0
	bx	lr
	.cfi_endproc
.LFE35:
	.size	GetMedian, .-GetMedian
	.section	.text.IsPixelBad,"ax",%progbits
	.align	1
	.syntax unified
	.thumb
	.thumb_func
	.type	IsPixelBad, %function
IsPixelBad:
.LFB36:
	.loc 1 1442 1
	.cfi_startproc
	@ args = 0, pretend = 0, frame = 16
	@ frame_needed = 1, uses_anonymous_args = 0
	@ link register save eliminated.
	push	{r7}
	.cfi_def_cfa_offset 4
	.cfi_offset 7, -4
	sub	sp, sp, #20
	.cfi_def_cfa_offset 24
	add	r7, sp, #0
	.cfi_def_cfa_register 7
	mov	r3, r0
	str	r1, [r7]
	strh	r3, [r7, #6]	@ movhi
.LBB35:
	.loc 1 1443 13
	movs	r3, #0
	str	r3, [r7, #12]
	.loc 1 1443 5
	b	.L358
.L362:
	.loc 1 1445 42
	ldr	r2, [r7]
	ldr	r3, [r7, #12]
	addw	r3, r3, #2360
	lsls	r3, r3, #1
	add	r3, r3, r2
	ldrh	r3, [r3, #2]
	.loc 1 1445 11
	ldrh	r2, [r7, #6]
	cmp	r2, r3
	beq	.L359
	.loc 1 1445 78 discriminator 1
	ldr	r3, [r7]
	ldr	r2, [r7, #12]
	addw	r2, r2, #2356
	ldrh	r3, [r3, r2, lsl #1]
	.loc 1 1445 46 discriminator 1
	ldrh	r2, [r7, #6]
	cmp	r2, r3
	bne	.L360
.L359:
	.loc 1 1447 20
	movs	r3, #1
	b	.L361
.L360:
	.loc 1 1443 24 discriminator 2
	ldr	r3, [r7, #12]
	adds	r3, r3, #1
	str	r3, [r7, #12]
.L358:
	.loc 1 1443 19 discriminator 1
	ldr	r3, [r7, #12]
	cmp	r3, #4
	ble	.L362
.LBE35:
	.loc 1 1451 12
	movs	r3, #0
.L361:
	.loc 1 1452 1
	mov	r0, r3
	adds	r7, r7, #20
	.cfi_def_cfa_offset 4
	mov	sp, r7
	.cfi_def_cfa_register 13
	@ sp needed
	ldr	r7, [sp], #4
	.cfi_restore 7
	.cfi_def_cfa_offset 0
	bx	lr
	.cfi_endproc
.LFE36:
	.size	IsPixelBad, .-IsPixelBad
	.text
.Letext0:
	.file 2 "C:\\Program Files\\STM32CubeIDE_1.13.0\\STM32CubeIDE\\plugins\\com.st.stm32cube.ide.mcu.externaltools.gnu-tools-for-stm32.11.3.rel1.win32_1.1.0.202305231506\\tools\\arm-none-eabi\\include\\machine\\_default_types.h"
	.file 3 "C:\\Program Files\\STM32CubeIDE_1.13.0\\STM32CubeIDE\\plugins\\com.st.stm32cube.ide.mcu.externaltools.gnu-tools-for-stm32.11.3.rel1.win32_1.1.0.202305231506\\tools\\bin/../lib/gcc/arm-none-eabi/11.3.1/../../../../arm-none-eabi/include/sys/_stdint.h"
	.file 4 "D:/Workspace/stm32/ThermalBridge3/Hardware/headers/MLX90640_API.h"
	.file 5 "C:\\Program Files\\STM32CubeIDE_1.13.0\\STM32CubeIDE\\plugins\\com.st.stm32cube.ide.mcu.externaltools.gnu-tools-for-stm32.11.3.rel1.win32_1.1.0.202305231506\\tools\\bin/../lib/gcc/arm-none-eabi/11.3.1/../../../../arm-none-eabi/include/math.h"
	.file 6 "D:/Workspace/stm32/ThermalBridge3/Hardware/headers/MLX90640_I2C_Driver.h"